ARM GAS  /tmp/ccUYINNg.s 			page 1


   1              		.syntax unified
   2              		.cpu cortex-m4
   3              		.eabi_attribute 27, 1
   4              		.eabi_attribute 28, 1
   5              		.fpu fpv4-sp-d16
   6              		.eabi_attribute 20, 1
   7              		.eabi_attribute 21, 1
   8              		.eabi_attribute 23, 3
   9              		.eabi_attribute 24, 1
  10              		.eabi_attribute 25, 1
  11              		.eabi_attribute 26, 1
  12              		.eabi_attribute 30, 1
  13              		.eabi_attribute 34, 1
  14              		.eabi_attribute 18, 4
  15              		.thumb
  16              		.file	"stm32f4xx_hal_pcd.c"
  17              		.text
  18              	.Ltext0:
  19              		.cfi_sections	.debug_frame
  20              		.section	.text.PCD_WriteEmptyTxFifo,"ax",%progbits
  21              		.align	2
  22              		.thumb
  23              		.thumb_func
  25              	PCD_WriteEmptyTxFifo:
  26              	.LFB155:
  27              		.file 1 "Drivers/STM32F4xx_HAL_Driver/Src/stm32f4xx_hal_pcd.c"
   1:Drivers/STM32F4xx_HAL_Driver/Src/stm32f4xx_hal_pcd.c **** /**
   2:Drivers/STM32F4xx_HAL_Driver/Src/stm32f4xx_hal_pcd.c ****   ******************************************************************************
   3:Drivers/STM32F4xx_HAL_Driver/Src/stm32f4xx_hal_pcd.c ****   * @file    stm32f4xx_hal_pcd.c
   4:Drivers/STM32F4xx_HAL_Driver/Src/stm32f4xx_hal_pcd.c ****   * @author  MCD Application Team
   5:Drivers/STM32F4xx_HAL_Driver/Src/stm32f4xx_hal_pcd.c ****   * @brief   PCD HAL module driver.
   6:Drivers/STM32F4xx_HAL_Driver/Src/stm32f4xx_hal_pcd.c ****   *          This file provides firmware functions to manage the following 
   7:Drivers/STM32F4xx_HAL_Driver/Src/stm32f4xx_hal_pcd.c ****   *          functionalities of the USB Peripheral Controller:
   8:Drivers/STM32F4xx_HAL_Driver/Src/stm32f4xx_hal_pcd.c ****   *           + Initialization and de-initialization functions
   9:Drivers/STM32F4xx_HAL_Driver/Src/stm32f4xx_hal_pcd.c ****   *           + IO operation functions
  10:Drivers/STM32F4xx_HAL_Driver/Src/stm32f4xx_hal_pcd.c ****   *           + Peripheral Control functions 
  11:Drivers/STM32F4xx_HAL_Driver/Src/stm32f4xx_hal_pcd.c ****   *           + Peripheral State functions
  12:Drivers/STM32F4xx_HAL_Driver/Src/stm32f4xx_hal_pcd.c ****   *         
  13:Drivers/STM32F4xx_HAL_Driver/Src/stm32f4xx_hal_pcd.c ****   @verbatim
  14:Drivers/STM32F4xx_HAL_Driver/Src/stm32f4xx_hal_pcd.c ****   ==============================================================================
  15:Drivers/STM32F4xx_HAL_Driver/Src/stm32f4xx_hal_pcd.c ****                     ##### How to use this driver #####
  16:Drivers/STM32F4xx_HAL_Driver/Src/stm32f4xx_hal_pcd.c ****   ==============================================================================
  17:Drivers/STM32F4xx_HAL_Driver/Src/stm32f4xx_hal_pcd.c ****     [..]
  18:Drivers/STM32F4xx_HAL_Driver/Src/stm32f4xx_hal_pcd.c ****       The PCD HAL driver can be used as follows:
  19:Drivers/STM32F4xx_HAL_Driver/Src/stm32f4xx_hal_pcd.c **** 
  20:Drivers/STM32F4xx_HAL_Driver/Src/stm32f4xx_hal_pcd.c ****      (#) Declare a PCD_HandleTypeDef handle structure, for example:
  21:Drivers/STM32F4xx_HAL_Driver/Src/stm32f4xx_hal_pcd.c ****          PCD_HandleTypeDef  hpcd;
  22:Drivers/STM32F4xx_HAL_Driver/Src/stm32f4xx_hal_pcd.c ****         
  23:Drivers/STM32F4xx_HAL_Driver/Src/stm32f4xx_hal_pcd.c ****      (#) Fill parameters of Init structure in HCD handle
  24:Drivers/STM32F4xx_HAL_Driver/Src/stm32f4xx_hal_pcd.c ****   
  25:Drivers/STM32F4xx_HAL_Driver/Src/stm32f4xx_hal_pcd.c ****      (#) Call HAL_PCD_Init() API to initialize the PCD peripheral (Core, Device core, ...) 
  26:Drivers/STM32F4xx_HAL_Driver/Src/stm32f4xx_hal_pcd.c **** 
  27:Drivers/STM32F4xx_HAL_Driver/Src/stm32f4xx_hal_pcd.c ****      (#) Initialize the PCD low level resources through the HAL_PCD_MspInit() API:
  28:Drivers/STM32F4xx_HAL_Driver/Src/stm32f4xx_hal_pcd.c ****          (##) Enable the PCD/USB Low Level interface clock using 
  29:Drivers/STM32F4xx_HAL_Driver/Src/stm32f4xx_hal_pcd.c ****               (+++) __HAL_RCC_USB_OTG_FS_CLK_ENABLE();
  30:Drivers/STM32F4xx_HAL_Driver/Src/stm32f4xx_hal_pcd.c ****               (+++) __HAL_RCC_USB_OTG_HS_CLK_ENABLE(); (For High Speed Mode)
  31:Drivers/STM32F4xx_HAL_Driver/Src/stm32f4xx_hal_pcd.c ****            
ARM GAS  /tmp/ccUYINNg.s 			page 2


  32:Drivers/STM32F4xx_HAL_Driver/Src/stm32f4xx_hal_pcd.c ****          (##) Initialize the related GPIO clocks
  33:Drivers/STM32F4xx_HAL_Driver/Src/stm32f4xx_hal_pcd.c ****          (##) Configure PCD pin-out
  34:Drivers/STM32F4xx_HAL_Driver/Src/stm32f4xx_hal_pcd.c ****          (##) Configure PCD NVIC interrupt
  35:Drivers/STM32F4xx_HAL_Driver/Src/stm32f4xx_hal_pcd.c ****     
  36:Drivers/STM32F4xx_HAL_Driver/Src/stm32f4xx_hal_pcd.c ****      (#)Associate the Upper USB device stack to the HAL PCD Driver:
  37:Drivers/STM32F4xx_HAL_Driver/Src/stm32f4xx_hal_pcd.c ****          (##) hpcd.pData = pdev;
  38:Drivers/STM32F4xx_HAL_Driver/Src/stm32f4xx_hal_pcd.c **** 
  39:Drivers/STM32F4xx_HAL_Driver/Src/stm32f4xx_hal_pcd.c ****      (#)Enable PCD transmission and reception:
  40:Drivers/STM32F4xx_HAL_Driver/Src/stm32f4xx_hal_pcd.c ****          (##) HAL_PCD_Start();
  41:Drivers/STM32F4xx_HAL_Driver/Src/stm32f4xx_hal_pcd.c **** 
  42:Drivers/STM32F4xx_HAL_Driver/Src/stm32f4xx_hal_pcd.c ****   @endverbatim
  43:Drivers/STM32F4xx_HAL_Driver/Src/stm32f4xx_hal_pcd.c ****   ******************************************************************************
  44:Drivers/STM32F4xx_HAL_Driver/Src/stm32f4xx_hal_pcd.c ****   * @attention
  45:Drivers/STM32F4xx_HAL_Driver/Src/stm32f4xx_hal_pcd.c ****   *
  46:Drivers/STM32F4xx_HAL_Driver/Src/stm32f4xx_hal_pcd.c ****   * <h2><center>&copy; COPYRIGHT(c) 2017 STMicroelectronics</center></h2>
  47:Drivers/STM32F4xx_HAL_Driver/Src/stm32f4xx_hal_pcd.c ****   *
  48:Drivers/STM32F4xx_HAL_Driver/Src/stm32f4xx_hal_pcd.c ****   * Redistribution and use in source and binary forms, with or without modification,
  49:Drivers/STM32F4xx_HAL_Driver/Src/stm32f4xx_hal_pcd.c ****   * are permitted provided that the following conditions are met:
  50:Drivers/STM32F4xx_HAL_Driver/Src/stm32f4xx_hal_pcd.c ****   *   1. Redistributions of source code must retain the above copyright notice,
  51:Drivers/STM32F4xx_HAL_Driver/Src/stm32f4xx_hal_pcd.c ****   *      this list of conditions and the following disclaimer.
  52:Drivers/STM32F4xx_HAL_Driver/Src/stm32f4xx_hal_pcd.c ****   *   2. Redistributions in binary form must reproduce the above copyright notice,
  53:Drivers/STM32F4xx_HAL_Driver/Src/stm32f4xx_hal_pcd.c ****   *      this list of conditions and the following disclaimer in the documentation
  54:Drivers/STM32F4xx_HAL_Driver/Src/stm32f4xx_hal_pcd.c ****   *      and/or other materials provided with the distribution.
  55:Drivers/STM32F4xx_HAL_Driver/Src/stm32f4xx_hal_pcd.c ****   *   3. Neither the name of STMicroelectronics nor the names of its contributors
  56:Drivers/STM32F4xx_HAL_Driver/Src/stm32f4xx_hal_pcd.c ****   *      may be used to endorse or promote products derived from this software
  57:Drivers/STM32F4xx_HAL_Driver/Src/stm32f4xx_hal_pcd.c ****   *      without specific prior written permission.
  58:Drivers/STM32F4xx_HAL_Driver/Src/stm32f4xx_hal_pcd.c ****   *
  59:Drivers/STM32F4xx_HAL_Driver/Src/stm32f4xx_hal_pcd.c ****   * THIS SOFTWARE IS PROVIDED BY THE COPYRIGHT HOLDERS AND CONTRIBUTORS "AS IS"
  60:Drivers/STM32F4xx_HAL_Driver/Src/stm32f4xx_hal_pcd.c ****   * AND ANY EXPRESS OR IMPLIED WARRANTIES, INCLUDING, BUT NOT LIMITED TO, THE
  61:Drivers/STM32F4xx_HAL_Driver/Src/stm32f4xx_hal_pcd.c ****   * IMPLIED WARRANTIES OF MERCHANTABILITY AND FITNESS FOR A PARTICULAR PURPOSE ARE
  62:Drivers/STM32F4xx_HAL_Driver/Src/stm32f4xx_hal_pcd.c ****   * DISCLAIMED. IN NO EVENT SHALL THE COPYRIGHT HOLDER OR CONTRIBUTORS BE LIABLE
  63:Drivers/STM32F4xx_HAL_Driver/Src/stm32f4xx_hal_pcd.c ****   * FOR ANY DIRECT, INDIRECT, INCIDENTAL, SPECIAL, EXEMPLARY, OR CONSEQUENTIAL
  64:Drivers/STM32F4xx_HAL_Driver/Src/stm32f4xx_hal_pcd.c ****   * DAMAGES (INCLUDING, BUT NOT LIMITED TO, PROCUREMENT OF SUBSTITUTE GOODS OR
  65:Drivers/STM32F4xx_HAL_Driver/Src/stm32f4xx_hal_pcd.c ****   * SERVICES; LOSS OF USE, DATA, OR PROFITS; OR BUSINESS INTERRUPTION) HOWEVER
  66:Drivers/STM32F4xx_HAL_Driver/Src/stm32f4xx_hal_pcd.c ****   * CAUSED AND ON ANY THEORY OF LIABILITY, WHETHER IN CONTRACT, STRICT LIABILITY,
  67:Drivers/STM32F4xx_HAL_Driver/Src/stm32f4xx_hal_pcd.c ****   * OR TORT (INCLUDING NEGLIGENCE OR OTHERWISE) ARISING IN ANY WAY OUT OF THE USE
  68:Drivers/STM32F4xx_HAL_Driver/Src/stm32f4xx_hal_pcd.c ****   * OF THIS SOFTWARE, EVEN IF ADVISED OF THE POSSIBILITY OF SUCH DAMAGE.
  69:Drivers/STM32F4xx_HAL_Driver/Src/stm32f4xx_hal_pcd.c ****   *
  70:Drivers/STM32F4xx_HAL_Driver/Src/stm32f4xx_hal_pcd.c ****   ******************************************************************************
  71:Drivers/STM32F4xx_HAL_Driver/Src/stm32f4xx_hal_pcd.c ****   */ 
  72:Drivers/STM32F4xx_HAL_Driver/Src/stm32f4xx_hal_pcd.c **** 
  73:Drivers/STM32F4xx_HAL_Driver/Src/stm32f4xx_hal_pcd.c **** /* Includes ------------------------------------------------------------------*/
  74:Drivers/STM32F4xx_HAL_Driver/Src/stm32f4xx_hal_pcd.c **** #include "stm32f4xx_hal.h"
  75:Drivers/STM32F4xx_HAL_Driver/Src/stm32f4xx_hal_pcd.c **** 
  76:Drivers/STM32F4xx_HAL_Driver/Src/stm32f4xx_hal_pcd.c **** /** @addtogroup STM32F4xx_HAL_Driver
  77:Drivers/STM32F4xx_HAL_Driver/Src/stm32f4xx_hal_pcd.c ****   * @{
  78:Drivers/STM32F4xx_HAL_Driver/Src/stm32f4xx_hal_pcd.c ****   */
  79:Drivers/STM32F4xx_HAL_Driver/Src/stm32f4xx_hal_pcd.c **** 
  80:Drivers/STM32F4xx_HAL_Driver/Src/stm32f4xx_hal_pcd.c **** /** @defgroup PCD PCD
  81:Drivers/STM32F4xx_HAL_Driver/Src/stm32f4xx_hal_pcd.c ****   * @brief PCD HAL module driver
  82:Drivers/STM32F4xx_HAL_Driver/Src/stm32f4xx_hal_pcd.c ****   * @{
  83:Drivers/STM32F4xx_HAL_Driver/Src/stm32f4xx_hal_pcd.c ****   */
  84:Drivers/STM32F4xx_HAL_Driver/Src/stm32f4xx_hal_pcd.c **** 
  85:Drivers/STM32F4xx_HAL_Driver/Src/stm32f4xx_hal_pcd.c **** #ifdef HAL_PCD_MODULE_ENABLED
  86:Drivers/STM32F4xx_HAL_Driver/Src/stm32f4xx_hal_pcd.c **** #if defined(STM32F405xx) || defined(STM32F415xx) || defined(STM32F407xx) || defined(STM32F417xx) ||
  87:Drivers/STM32F4xx_HAL_Driver/Src/stm32f4xx_hal_pcd.c ****     defined(STM32F427xx) || defined(STM32F437xx) || defined(STM32F429xx) || defined(STM32F439xx) ||
  88:Drivers/STM32F4xx_HAL_Driver/Src/stm32f4xx_hal_pcd.c ****     defined(STM32F401xC) || defined(STM32F401xE) || defined(STM32F411xE) || defined(STM32F446xx) ||
ARM GAS  /tmp/ccUYINNg.s 			page 3


  89:Drivers/STM32F4xx_HAL_Driver/Src/stm32f4xx_hal_pcd.c ****     defined(STM32F469xx) || defined(STM32F479xx) || defined(STM32F412Zx) || defined(STM32F412Vx) ||
  90:Drivers/STM32F4xx_HAL_Driver/Src/stm32f4xx_hal_pcd.c ****     defined(STM32F412Rx) || defined(STM32F412Cx) || defined(STM32F413xx) || defined(STM32F423xx)
  91:Drivers/STM32F4xx_HAL_Driver/Src/stm32f4xx_hal_pcd.c **** /* Private types -------------------------------------------------------------*/
  92:Drivers/STM32F4xx_HAL_Driver/Src/stm32f4xx_hal_pcd.c **** /* Private variables ---------------------------------------------------------*/
  93:Drivers/STM32F4xx_HAL_Driver/Src/stm32f4xx_hal_pcd.c **** /* Private constants ---------------------------------------------------------*/
  94:Drivers/STM32F4xx_HAL_Driver/Src/stm32f4xx_hal_pcd.c **** /* Private macros ------------------------------------------------------------*/
  95:Drivers/STM32F4xx_HAL_Driver/Src/stm32f4xx_hal_pcd.c **** /** @defgroup PCD_Private_Macros PCD Private Macros
  96:Drivers/STM32F4xx_HAL_Driver/Src/stm32f4xx_hal_pcd.c ****   * @{
  97:Drivers/STM32F4xx_HAL_Driver/Src/stm32f4xx_hal_pcd.c ****   */ 
  98:Drivers/STM32F4xx_HAL_Driver/Src/stm32f4xx_hal_pcd.c **** #define PCD_MIN(a, b)  (((a) < (b)) ? (a) : (b))
  99:Drivers/STM32F4xx_HAL_Driver/Src/stm32f4xx_hal_pcd.c **** #define PCD_MAX(a, b)  (((a) > (b)) ? (a) : (b))
 100:Drivers/STM32F4xx_HAL_Driver/Src/stm32f4xx_hal_pcd.c **** /**
 101:Drivers/STM32F4xx_HAL_Driver/Src/stm32f4xx_hal_pcd.c ****   * @}
 102:Drivers/STM32F4xx_HAL_Driver/Src/stm32f4xx_hal_pcd.c ****   */
 103:Drivers/STM32F4xx_HAL_Driver/Src/stm32f4xx_hal_pcd.c **** 
 104:Drivers/STM32F4xx_HAL_Driver/Src/stm32f4xx_hal_pcd.c **** /* Private functions prototypes ----------------------------------------------*/
 105:Drivers/STM32F4xx_HAL_Driver/Src/stm32f4xx_hal_pcd.c **** /** @defgroup PCD_Private_Functions PCD Private Functions
 106:Drivers/STM32F4xx_HAL_Driver/Src/stm32f4xx_hal_pcd.c ****   * @{
 107:Drivers/STM32F4xx_HAL_Driver/Src/stm32f4xx_hal_pcd.c ****   */
 108:Drivers/STM32F4xx_HAL_Driver/Src/stm32f4xx_hal_pcd.c **** static HAL_StatusTypeDef PCD_WriteEmptyTxFifo(PCD_HandleTypeDef *hpcd, uint32_t epnum);
 109:Drivers/STM32F4xx_HAL_Driver/Src/stm32f4xx_hal_pcd.c **** /**
 110:Drivers/STM32F4xx_HAL_Driver/Src/stm32f4xx_hal_pcd.c ****   * @}
 111:Drivers/STM32F4xx_HAL_Driver/Src/stm32f4xx_hal_pcd.c ****   */
 112:Drivers/STM32F4xx_HAL_Driver/Src/stm32f4xx_hal_pcd.c **** 
 113:Drivers/STM32F4xx_HAL_Driver/Src/stm32f4xx_hal_pcd.c **** /* Exported functions --------------------------------------------------------*/
 114:Drivers/STM32F4xx_HAL_Driver/Src/stm32f4xx_hal_pcd.c **** /** @defgroup PCD_Exported_Functions PCD Exported Functions
 115:Drivers/STM32F4xx_HAL_Driver/Src/stm32f4xx_hal_pcd.c ****   * @{
 116:Drivers/STM32F4xx_HAL_Driver/Src/stm32f4xx_hal_pcd.c ****   */
 117:Drivers/STM32F4xx_HAL_Driver/Src/stm32f4xx_hal_pcd.c **** 
 118:Drivers/STM32F4xx_HAL_Driver/Src/stm32f4xx_hal_pcd.c **** /** @defgroup PCD_Exported_Functions_Group1 Initialization and de-initialization functions 
 119:Drivers/STM32F4xx_HAL_Driver/Src/stm32f4xx_hal_pcd.c ****  *  @brief    Initialization and Configuration functions 
 120:Drivers/STM32F4xx_HAL_Driver/Src/stm32f4xx_hal_pcd.c ****  *
 121:Drivers/STM32F4xx_HAL_Driver/Src/stm32f4xx_hal_pcd.c **** @verbatim 
 122:Drivers/STM32F4xx_HAL_Driver/Src/stm32f4xx_hal_pcd.c ****  ===============================================================================
 123:Drivers/STM32F4xx_HAL_Driver/Src/stm32f4xx_hal_pcd.c ****             ##### Initialization and de-initialization functions #####
 124:Drivers/STM32F4xx_HAL_Driver/Src/stm32f4xx_hal_pcd.c ****  ===============================================================================
 125:Drivers/STM32F4xx_HAL_Driver/Src/stm32f4xx_hal_pcd.c ****     [..]  This section provides functions allowing to:
 126:Drivers/STM32F4xx_HAL_Driver/Src/stm32f4xx_hal_pcd.c ****  
 127:Drivers/STM32F4xx_HAL_Driver/Src/stm32f4xx_hal_pcd.c **** @endverbatim
 128:Drivers/STM32F4xx_HAL_Driver/Src/stm32f4xx_hal_pcd.c ****   * @{
 129:Drivers/STM32F4xx_HAL_Driver/Src/stm32f4xx_hal_pcd.c ****   */
 130:Drivers/STM32F4xx_HAL_Driver/Src/stm32f4xx_hal_pcd.c **** 
 131:Drivers/STM32F4xx_HAL_Driver/Src/stm32f4xx_hal_pcd.c **** /**
 132:Drivers/STM32F4xx_HAL_Driver/Src/stm32f4xx_hal_pcd.c ****   * @brief  Initializes the PCD according to the specified
 133:Drivers/STM32F4xx_HAL_Driver/Src/stm32f4xx_hal_pcd.c ****   *         parameters in the PCD_InitTypeDef and initialize the associated handle.
 134:Drivers/STM32F4xx_HAL_Driver/Src/stm32f4xx_hal_pcd.c ****   * @param  hpcd PCD handle
 135:Drivers/STM32F4xx_HAL_Driver/Src/stm32f4xx_hal_pcd.c ****   * @retval HAL status
 136:Drivers/STM32F4xx_HAL_Driver/Src/stm32f4xx_hal_pcd.c ****   */
 137:Drivers/STM32F4xx_HAL_Driver/Src/stm32f4xx_hal_pcd.c **** HAL_StatusTypeDef HAL_PCD_Init(PCD_HandleTypeDef *hpcd)
 138:Drivers/STM32F4xx_HAL_Driver/Src/stm32f4xx_hal_pcd.c **** { 
 139:Drivers/STM32F4xx_HAL_Driver/Src/stm32f4xx_hal_pcd.c ****   uint32_t i = 0U;
 140:Drivers/STM32F4xx_HAL_Driver/Src/stm32f4xx_hal_pcd.c ****   
 141:Drivers/STM32F4xx_HAL_Driver/Src/stm32f4xx_hal_pcd.c ****   /* Check the PCD handle allocation */
 142:Drivers/STM32F4xx_HAL_Driver/Src/stm32f4xx_hal_pcd.c ****   if(hpcd == NULL)
 143:Drivers/STM32F4xx_HAL_Driver/Src/stm32f4xx_hal_pcd.c ****   {
 144:Drivers/STM32F4xx_HAL_Driver/Src/stm32f4xx_hal_pcd.c ****     return HAL_ERROR;
 145:Drivers/STM32F4xx_HAL_Driver/Src/stm32f4xx_hal_pcd.c ****   }
ARM GAS  /tmp/ccUYINNg.s 			page 4


 146:Drivers/STM32F4xx_HAL_Driver/Src/stm32f4xx_hal_pcd.c ****   
 147:Drivers/STM32F4xx_HAL_Driver/Src/stm32f4xx_hal_pcd.c ****   /* Check the parameters */
 148:Drivers/STM32F4xx_HAL_Driver/Src/stm32f4xx_hal_pcd.c ****   assert_param(IS_PCD_ALL_INSTANCE(hpcd->Instance));
 149:Drivers/STM32F4xx_HAL_Driver/Src/stm32f4xx_hal_pcd.c **** 
 150:Drivers/STM32F4xx_HAL_Driver/Src/stm32f4xx_hal_pcd.c ****   hpcd->State = HAL_PCD_STATE_BUSY;
 151:Drivers/STM32F4xx_HAL_Driver/Src/stm32f4xx_hal_pcd.c ****   
 152:Drivers/STM32F4xx_HAL_Driver/Src/stm32f4xx_hal_pcd.c ****   /* Init the low level hardware : GPIO, CLOCK, NVIC... */
 153:Drivers/STM32F4xx_HAL_Driver/Src/stm32f4xx_hal_pcd.c ****   HAL_PCD_MspInit(hpcd);
 154:Drivers/STM32F4xx_HAL_Driver/Src/stm32f4xx_hal_pcd.c **** 
 155:Drivers/STM32F4xx_HAL_Driver/Src/stm32f4xx_hal_pcd.c ****   /* Disable the Interrupts */
 156:Drivers/STM32F4xx_HAL_Driver/Src/stm32f4xx_hal_pcd.c ****  __HAL_PCD_DISABLE(hpcd);
 157:Drivers/STM32F4xx_HAL_Driver/Src/stm32f4xx_hal_pcd.c ****  
 158:Drivers/STM32F4xx_HAL_Driver/Src/stm32f4xx_hal_pcd.c ****  /*Init the Core (common init.) */
 159:Drivers/STM32F4xx_HAL_Driver/Src/stm32f4xx_hal_pcd.c ****  USB_CoreInit(hpcd->Instance, hpcd->Init);
 160:Drivers/STM32F4xx_HAL_Driver/Src/stm32f4xx_hal_pcd.c ****  
 161:Drivers/STM32F4xx_HAL_Driver/Src/stm32f4xx_hal_pcd.c ****  /* Force Device Mode*/
 162:Drivers/STM32F4xx_HAL_Driver/Src/stm32f4xx_hal_pcd.c ****  USB_SetCurrentMode(hpcd->Instance , USB_OTG_DEVICE_MODE);
 163:Drivers/STM32F4xx_HAL_Driver/Src/stm32f4xx_hal_pcd.c ****  
 164:Drivers/STM32F4xx_HAL_Driver/Src/stm32f4xx_hal_pcd.c ****  /* Init endpoints structures */
 165:Drivers/STM32F4xx_HAL_Driver/Src/stm32f4xx_hal_pcd.c ****  for (i = 0U; i < 15U; i++)
 166:Drivers/STM32F4xx_HAL_Driver/Src/stm32f4xx_hal_pcd.c ****  {
 167:Drivers/STM32F4xx_HAL_Driver/Src/stm32f4xx_hal_pcd.c ****    /* Init ep structure */
 168:Drivers/STM32F4xx_HAL_Driver/Src/stm32f4xx_hal_pcd.c ****    hpcd->IN_ep[i].is_in = 1U;
 169:Drivers/STM32F4xx_HAL_Driver/Src/stm32f4xx_hal_pcd.c ****    hpcd->IN_ep[i].num = i;
 170:Drivers/STM32F4xx_HAL_Driver/Src/stm32f4xx_hal_pcd.c ****    hpcd->IN_ep[i].tx_fifo_num = i;
 171:Drivers/STM32F4xx_HAL_Driver/Src/stm32f4xx_hal_pcd.c ****    /* Control until ep is activated */
 172:Drivers/STM32F4xx_HAL_Driver/Src/stm32f4xx_hal_pcd.c ****    hpcd->IN_ep[i].type = EP_TYPE_CTRL;
 173:Drivers/STM32F4xx_HAL_Driver/Src/stm32f4xx_hal_pcd.c ****    hpcd->IN_ep[i].maxpacket = 0U;
 174:Drivers/STM32F4xx_HAL_Driver/Src/stm32f4xx_hal_pcd.c ****    hpcd->IN_ep[i].xfer_buff = 0U;
 175:Drivers/STM32F4xx_HAL_Driver/Src/stm32f4xx_hal_pcd.c ****    hpcd->IN_ep[i].xfer_len = 0U;
 176:Drivers/STM32F4xx_HAL_Driver/Src/stm32f4xx_hal_pcd.c ****  }
 177:Drivers/STM32F4xx_HAL_Driver/Src/stm32f4xx_hal_pcd.c ****  
 178:Drivers/STM32F4xx_HAL_Driver/Src/stm32f4xx_hal_pcd.c ****  for (i = 0U; i < 15U; i++)
 179:Drivers/STM32F4xx_HAL_Driver/Src/stm32f4xx_hal_pcd.c ****  {
 180:Drivers/STM32F4xx_HAL_Driver/Src/stm32f4xx_hal_pcd.c ****    hpcd->OUT_ep[i].is_in = 0U;
 181:Drivers/STM32F4xx_HAL_Driver/Src/stm32f4xx_hal_pcd.c ****    hpcd->OUT_ep[i].num = i;
 182:Drivers/STM32F4xx_HAL_Driver/Src/stm32f4xx_hal_pcd.c ****    hpcd->IN_ep[i].tx_fifo_num = i;
 183:Drivers/STM32F4xx_HAL_Driver/Src/stm32f4xx_hal_pcd.c ****    /* Control until ep is activated */
 184:Drivers/STM32F4xx_HAL_Driver/Src/stm32f4xx_hal_pcd.c ****    hpcd->OUT_ep[i].type = EP_TYPE_CTRL;
 185:Drivers/STM32F4xx_HAL_Driver/Src/stm32f4xx_hal_pcd.c ****    hpcd->OUT_ep[i].maxpacket = 0U;
 186:Drivers/STM32F4xx_HAL_Driver/Src/stm32f4xx_hal_pcd.c ****    hpcd->OUT_ep[i].xfer_buff = 0U;
 187:Drivers/STM32F4xx_HAL_Driver/Src/stm32f4xx_hal_pcd.c ****    hpcd->OUT_ep[i].xfer_len = 0U;
 188:Drivers/STM32F4xx_HAL_Driver/Src/stm32f4xx_hal_pcd.c ****    
 189:Drivers/STM32F4xx_HAL_Driver/Src/stm32f4xx_hal_pcd.c ****    hpcd->Instance->DIEPTXF[i] = 0U;
 190:Drivers/STM32F4xx_HAL_Driver/Src/stm32f4xx_hal_pcd.c ****  }
 191:Drivers/STM32F4xx_HAL_Driver/Src/stm32f4xx_hal_pcd.c ****  
 192:Drivers/STM32F4xx_HAL_Driver/Src/stm32f4xx_hal_pcd.c ****  /* Init Device */
 193:Drivers/STM32F4xx_HAL_Driver/Src/stm32f4xx_hal_pcd.c ****  USB_DevInit(hpcd->Instance, hpcd->Init);
 194:Drivers/STM32F4xx_HAL_Driver/Src/stm32f4xx_hal_pcd.c ****  
 195:Drivers/STM32F4xx_HAL_Driver/Src/stm32f4xx_hal_pcd.c ****  hpcd->State= HAL_PCD_STATE_READY;
 196:Drivers/STM32F4xx_HAL_Driver/Src/stm32f4xx_hal_pcd.c ****  
 197:Drivers/STM32F4xx_HAL_Driver/Src/stm32f4xx_hal_pcd.c **** #ifdef USB_OTG_GLPMCFG_LPMEN
 198:Drivers/STM32F4xx_HAL_Driver/Src/stm32f4xx_hal_pcd.c ****  /* Activate LPM */
 199:Drivers/STM32F4xx_HAL_Driver/Src/stm32f4xx_hal_pcd.c ****  if (hpcd->Init.lpm_enable == 1U)
 200:Drivers/STM32F4xx_HAL_Driver/Src/stm32f4xx_hal_pcd.c ****  {
 201:Drivers/STM32F4xx_HAL_Driver/Src/stm32f4xx_hal_pcd.c ****    HAL_PCDEx_ActivateLPM(hpcd);
 202:Drivers/STM32F4xx_HAL_Driver/Src/stm32f4xx_hal_pcd.c ****  }
ARM GAS  /tmp/ccUYINNg.s 			page 5


 203:Drivers/STM32F4xx_HAL_Driver/Src/stm32f4xx_hal_pcd.c **** #endif /* USB_OTG_GLPMCFG_LPMEN */
 204:Drivers/STM32F4xx_HAL_Driver/Src/stm32f4xx_hal_pcd.c ****  
 205:Drivers/STM32F4xx_HAL_Driver/Src/stm32f4xx_hal_pcd.c **** #ifdef USB_OTG_GCCFG_BCDEN
 206:Drivers/STM32F4xx_HAL_Driver/Src/stm32f4xx_hal_pcd.c ****  /* Activate Battery charging */
 207:Drivers/STM32F4xx_HAL_Driver/Src/stm32f4xx_hal_pcd.c ****  if (hpcd->Init.battery_charging_enable == 1U)
 208:Drivers/STM32F4xx_HAL_Driver/Src/stm32f4xx_hal_pcd.c ****  {
 209:Drivers/STM32F4xx_HAL_Driver/Src/stm32f4xx_hal_pcd.c ****    HAL_PCDEx_ActivateBCD(hpcd);
 210:Drivers/STM32F4xx_HAL_Driver/Src/stm32f4xx_hal_pcd.c ****  }
 211:Drivers/STM32F4xx_HAL_Driver/Src/stm32f4xx_hal_pcd.c **** #endif /* USB_OTG_GCCFG_BCDEN */
 212:Drivers/STM32F4xx_HAL_Driver/Src/stm32f4xx_hal_pcd.c ****  
 213:Drivers/STM32F4xx_HAL_Driver/Src/stm32f4xx_hal_pcd.c ****  USB_DevDisconnect (hpcd->Instance);  
 214:Drivers/STM32F4xx_HAL_Driver/Src/stm32f4xx_hal_pcd.c ****  return HAL_OK;
 215:Drivers/STM32F4xx_HAL_Driver/Src/stm32f4xx_hal_pcd.c **** }
 216:Drivers/STM32F4xx_HAL_Driver/Src/stm32f4xx_hal_pcd.c **** 
 217:Drivers/STM32F4xx_HAL_Driver/Src/stm32f4xx_hal_pcd.c **** /**
 218:Drivers/STM32F4xx_HAL_Driver/Src/stm32f4xx_hal_pcd.c ****   * @brief  DeInitializes the PCD peripheral. 
 219:Drivers/STM32F4xx_HAL_Driver/Src/stm32f4xx_hal_pcd.c ****   * @param  hpcd PCD handle
 220:Drivers/STM32F4xx_HAL_Driver/Src/stm32f4xx_hal_pcd.c ****   * @retval HAL status
 221:Drivers/STM32F4xx_HAL_Driver/Src/stm32f4xx_hal_pcd.c ****   */
 222:Drivers/STM32F4xx_HAL_Driver/Src/stm32f4xx_hal_pcd.c **** HAL_StatusTypeDef HAL_PCD_DeInit(PCD_HandleTypeDef *hpcd)
 223:Drivers/STM32F4xx_HAL_Driver/Src/stm32f4xx_hal_pcd.c **** {
 224:Drivers/STM32F4xx_HAL_Driver/Src/stm32f4xx_hal_pcd.c ****   /* Check the PCD handle allocation */
 225:Drivers/STM32F4xx_HAL_Driver/Src/stm32f4xx_hal_pcd.c ****   if(hpcd == NULL)
 226:Drivers/STM32F4xx_HAL_Driver/Src/stm32f4xx_hal_pcd.c ****   {
 227:Drivers/STM32F4xx_HAL_Driver/Src/stm32f4xx_hal_pcd.c ****     return HAL_ERROR;
 228:Drivers/STM32F4xx_HAL_Driver/Src/stm32f4xx_hal_pcd.c ****   }
 229:Drivers/STM32F4xx_HAL_Driver/Src/stm32f4xx_hal_pcd.c **** 
 230:Drivers/STM32F4xx_HAL_Driver/Src/stm32f4xx_hal_pcd.c ****   hpcd->State = HAL_PCD_STATE_BUSY;
 231:Drivers/STM32F4xx_HAL_Driver/Src/stm32f4xx_hal_pcd.c ****   
 232:Drivers/STM32F4xx_HAL_Driver/Src/stm32f4xx_hal_pcd.c ****   /* Stop Device */
 233:Drivers/STM32F4xx_HAL_Driver/Src/stm32f4xx_hal_pcd.c ****   HAL_PCD_Stop(hpcd);
 234:Drivers/STM32F4xx_HAL_Driver/Src/stm32f4xx_hal_pcd.c ****     
 235:Drivers/STM32F4xx_HAL_Driver/Src/stm32f4xx_hal_pcd.c ****   /* DeInit the low level hardware */
 236:Drivers/STM32F4xx_HAL_Driver/Src/stm32f4xx_hal_pcd.c ****   HAL_PCD_MspDeInit(hpcd);
 237:Drivers/STM32F4xx_HAL_Driver/Src/stm32f4xx_hal_pcd.c ****   
 238:Drivers/STM32F4xx_HAL_Driver/Src/stm32f4xx_hal_pcd.c ****   hpcd->State = HAL_PCD_STATE_RESET; 
 239:Drivers/STM32F4xx_HAL_Driver/Src/stm32f4xx_hal_pcd.c ****   
 240:Drivers/STM32F4xx_HAL_Driver/Src/stm32f4xx_hal_pcd.c ****   return HAL_OK;
 241:Drivers/STM32F4xx_HAL_Driver/Src/stm32f4xx_hal_pcd.c **** }
 242:Drivers/STM32F4xx_HAL_Driver/Src/stm32f4xx_hal_pcd.c **** 
 243:Drivers/STM32F4xx_HAL_Driver/Src/stm32f4xx_hal_pcd.c **** /**
 244:Drivers/STM32F4xx_HAL_Driver/Src/stm32f4xx_hal_pcd.c ****   * @brief  Initializes the PCD MSP.
 245:Drivers/STM32F4xx_HAL_Driver/Src/stm32f4xx_hal_pcd.c ****   * @param  hpcd PCD handle
 246:Drivers/STM32F4xx_HAL_Driver/Src/stm32f4xx_hal_pcd.c ****   * @retval None
 247:Drivers/STM32F4xx_HAL_Driver/Src/stm32f4xx_hal_pcd.c ****   */
 248:Drivers/STM32F4xx_HAL_Driver/Src/stm32f4xx_hal_pcd.c **** __weak void HAL_PCD_MspInit(PCD_HandleTypeDef *hpcd)
 249:Drivers/STM32F4xx_HAL_Driver/Src/stm32f4xx_hal_pcd.c **** {
 250:Drivers/STM32F4xx_HAL_Driver/Src/stm32f4xx_hal_pcd.c ****   /* Prevent unused argument(s) compilation warning */
 251:Drivers/STM32F4xx_HAL_Driver/Src/stm32f4xx_hal_pcd.c ****   UNUSED(hpcd);
 252:Drivers/STM32F4xx_HAL_Driver/Src/stm32f4xx_hal_pcd.c ****   /* NOTE : This function Should not be modified, when the callback is needed,
 253:Drivers/STM32F4xx_HAL_Driver/Src/stm32f4xx_hal_pcd.c ****             the HAL_PCD_MspInit could be implemented in the user file
 254:Drivers/STM32F4xx_HAL_Driver/Src/stm32f4xx_hal_pcd.c ****    */
 255:Drivers/STM32F4xx_HAL_Driver/Src/stm32f4xx_hal_pcd.c **** }
 256:Drivers/STM32F4xx_HAL_Driver/Src/stm32f4xx_hal_pcd.c **** 
 257:Drivers/STM32F4xx_HAL_Driver/Src/stm32f4xx_hal_pcd.c **** /**
 258:Drivers/STM32F4xx_HAL_Driver/Src/stm32f4xx_hal_pcd.c ****   * @brief  DeInitializes PCD MSP.
 259:Drivers/STM32F4xx_HAL_Driver/Src/stm32f4xx_hal_pcd.c ****   * @param  hpcd PCD handle
ARM GAS  /tmp/ccUYINNg.s 			page 6


 260:Drivers/STM32F4xx_HAL_Driver/Src/stm32f4xx_hal_pcd.c ****   * @retval None
 261:Drivers/STM32F4xx_HAL_Driver/Src/stm32f4xx_hal_pcd.c ****   */
 262:Drivers/STM32F4xx_HAL_Driver/Src/stm32f4xx_hal_pcd.c **** __weak void HAL_PCD_MspDeInit(PCD_HandleTypeDef *hpcd)
 263:Drivers/STM32F4xx_HAL_Driver/Src/stm32f4xx_hal_pcd.c **** {
 264:Drivers/STM32F4xx_HAL_Driver/Src/stm32f4xx_hal_pcd.c ****   /* Prevent unused argument(s) compilation warning */
 265:Drivers/STM32F4xx_HAL_Driver/Src/stm32f4xx_hal_pcd.c ****   UNUSED(hpcd);
 266:Drivers/STM32F4xx_HAL_Driver/Src/stm32f4xx_hal_pcd.c ****   /* NOTE : This function Should not be modified, when the callback is needed,
 267:Drivers/STM32F4xx_HAL_Driver/Src/stm32f4xx_hal_pcd.c ****             the HAL_PCD_MspDeInit could be implemented in the user file
 268:Drivers/STM32F4xx_HAL_Driver/Src/stm32f4xx_hal_pcd.c ****    */
 269:Drivers/STM32F4xx_HAL_Driver/Src/stm32f4xx_hal_pcd.c **** }
 270:Drivers/STM32F4xx_HAL_Driver/Src/stm32f4xx_hal_pcd.c **** 
 271:Drivers/STM32F4xx_HAL_Driver/Src/stm32f4xx_hal_pcd.c **** /**
 272:Drivers/STM32F4xx_HAL_Driver/Src/stm32f4xx_hal_pcd.c ****   * @}
 273:Drivers/STM32F4xx_HAL_Driver/Src/stm32f4xx_hal_pcd.c ****   */
 274:Drivers/STM32F4xx_HAL_Driver/Src/stm32f4xx_hal_pcd.c **** 
 275:Drivers/STM32F4xx_HAL_Driver/Src/stm32f4xx_hal_pcd.c **** /** @defgroup PCD_Exported_Functions_Group2 Input and Output operation functions 
 276:Drivers/STM32F4xx_HAL_Driver/Src/stm32f4xx_hal_pcd.c ****  *  @brief   Data transfers functions 
 277:Drivers/STM32F4xx_HAL_Driver/Src/stm32f4xx_hal_pcd.c ****  *
 278:Drivers/STM32F4xx_HAL_Driver/Src/stm32f4xx_hal_pcd.c **** @verbatim 
 279:Drivers/STM32F4xx_HAL_Driver/Src/stm32f4xx_hal_pcd.c ****  ===============================================================================
 280:Drivers/STM32F4xx_HAL_Driver/Src/stm32f4xx_hal_pcd.c ****                       ##### IO operation functions #####
 281:Drivers/STM32F4xx_HAL_Driver/Src/stm32f4xx_hal_pcd.c ****  ===============================================================================  
 282:Drivers/STM32F4xx_HAL_Driver/Src/stm32f4xx_hal_pcd.c ****     [..]
 283:Drivers/STM32F4xx_HAL_Driver/Src/stm32f4xx_hal_pcd.c ****     This subsection provides a set of functions allowing to manage the PCD data 
 284:Drivers/STM32F4xx_HAL_Driver/Src/stm32f4xx_hal_pcd.c ****     transfers.
 285:Drivers/STM32F4xx_HAL_Driver/Src/stm32f4xx_hal_pcd.c **** 
 286:Drivers/STM32F4xx_HAL_Driver/Src/stm32f4xx_hal_pcd.c **** @endverbatim
 287:Drivers/STM32F4xx_HAL_Driver/Src/stm32f4xx_hal_pcd.c ****   * @{
 288:Drivers/STM32F4xx_HAL_Driver/Src/stm32f4xx_hal_pcd.c ****   */
 289:Drivers/STM32F4xx_HAL_Driver/Src/stm32f4xx_hal_pcd.c ****   
 290:Drivers/STM32F4xx_HAL_Driver/Src/stm32f4xx_hal_pcd.c **** /**
 291:Drivers/STM32F4xx_HAL_Driver/Src/stm32f4xx_hal_pcd.c ****   * @brief  Start The USB OTG Device.
 292:Drivers/STM32F4xx_HAL_Driver/Src/stm32f4xx_hal_pcd.c ****   * @param  hpcd PCD handle
 293:Drivers/STM32F4xx_HAL_Driver/Src/stm32f4xx_hal_pcd.c ****   * @retval HAL status
 294:Drivers/STM32F4xx_HAL_Driver/Src/stm32f4xx_hal_pcd.c ****   */
 295:Drivers/STM32F4xx_HAL_Driver/Src/stm32f4xx_hal_pcd.c **** HAL_StatusTypeDef HAL_PCD_Start(PCD_HandleTypeDef *hpcd)
 296:Drivers/STM32F4xx_HAL_Driver/Src/stm32f4xx_hal_pcd.c **** { 
 297:Drivers/STM32F4xx_HAL_Driver/Src/stm32f4xx_hal_pcd.c ****   __HAL_LOCK(hpcd); 
 298:Drivers/STM32F4xx_HAL_Driver/Src/stm32f4xx_hal_pcd.c ****   USB_DevConnect (hpcd->Instance);  
 299:Drivers/STM32F4xx_HAL_Driver/Src/stm32f4xx_hal_pcd.c ****   __HAL_PCD_ENABLE(hpcd);
 300:Drivers/STM32F4xx_HAL_Driver/Src/stm32f4xx_hal_pcd.c ****   __HAL_UNLOCK(hpcd); 
 301:Drivers/STM32F4xx_HAL_Driver/Src/stm32f4xx_hal_pcd.c ****   return HAL_OK;
 302:Drivers/STM32F4xx_HAL_Driver/Src/stm32f4xx_hal_pcd.c **** }
 303:Drivers/STM32F4xx_HAL_Driver/Src/stm32f4xx_hal_pcd.c **** 
 304:Drivers/STM32F4xx_HAL_Driver/Src/stm32f4xx_hal_pcd.c **** /**
 305:Drivers/STM32F4xx_HAL_Driver/Src/stm32f4xx_hal_pcd.c ****   * @brief  Stop The USB OTG Device.
 306:Drivers/STM32F4xx_HAL_Driver/Src/stm32f4xx_hal_pcd.c ****   * @param  hpcd PCD handle
 307:Drivers/STM32F4xx_HAL_Driver/Src/stm32f4xx_hal_pcd.c ****   * @retval HAL status
 308:Drivers/STM32F4xx_HAL_Driver/Src/stm32f4xx_hal_pcd.c ****   */
 309:Drivers/STM32F4xx_HAL_Driver/Src/stm32f4xx_hal_pcd.c **** HAL_StatusTypeDef HAL_PCD_Stop(PCD_HandleTypeDef *hpcd)
 310:Drivers/STM32F4xx_HAL_Driver/Src/stm32f4xx_hal_pcd.c **** { 
 311:Drivers/STM32F4xx_HAL_Driver/Src/stm32f4xx_hal_pcd.c ****   __HAL_LOCK(hpcd); 
 312:Drivers/STM32F4xx_HAL_Driver/Src/stm32f4xx_hal_pcd.c ****   __HAL_PCD_DISABLE(hpcd);
 313:Drivers/STM32F4xx_HAL_Driver/Src/stm32f4xx_hal_pcd.c ****   USB_StopDevice(hpcd->Instance);
 314:Drivers/STM32F4xx_HAL_Driver/Src/stm32f4xx_hal_pcd.c ****   USB_DevDisconnect(hpcd->Instance);
 315:Drivers/STM32F4xx_HAL_Driver/Src/stm32f4xx_hal_pcd.c ****   __HAL_UNLOCK(hpcd); 
 316:Drivers/STM32F4xx_HAL_Driver/Src/stm32f4xx_hal_pcd.c ****   return HAL_OK;
ARM GAS  /tmp/ccUYINNg.s 			page 7


 317:Drivers/STM32F4xx_HAL_Driver/Src/stm32f4xx_hal_pcd.c **** }
 318:Drivers/STM32F4xx_HAL_Driver/Src/stm32f4xx_hal_pcd.c **** 
 319:Drivers/STM32F4xx_HAL_Driver/Src/stm32f4xx_hal_pcd.c **** /**
 320:Drivers/STM32F4xx_HAL_Driver/Src/stm32f4xx_hal_pcd.c ****   * @brief  Handles PCD interrupt request.
 321:Drivers/STM32F4xx_HAL_Driver/Src/stm32f4xx_hal_pcd.c ****   * @param  hpcd PCD handle
 322:Drivers/STM32F4xx_HAL_Driver/Src/stm32f4xx_hal_pcd.c ****   * @retval HAL status
 323:Drivers/STM32F4xx_HAL_Driver/Src/stm32f4xx_hal_pcd.c ****   */
 324:Drivers/STM32F4xx_HAL_Driver/Src/stm32f4xx_hal_pcd.c **** void HAL_PCD_IRQHandler(PCD_HandleTypeDef *hpcd)
 325:Drivers/STM32F4xx_HAL_Driver/Src/stm32f4xx_hal_pcd.c **** {
 326:Drivers/STM32F4xx_HAL_Driver/Src/stm32f4xx_hal_pcd.c ****   USB_OTG_GlobalTypeDef *USBx = hpcd->Instance;
 327:Drivers/STM32F4xx_HAL_Driver/Src/stm32f4xx_hal_pcd.c ****   uint32_t i = 0U, ep_intr = 0U, epint = 0U, epnum = 0U;
 328:Drivers/STM32F4xx_HAL_Driver/Src/stm32f4xx_hal_pcd.c ****   uint32_t fifoemptymsk = 0U, temp = 0U;
 329:Drivers/STM32F4xx_HAL_Driver/Src/stm32f4xx_hal_pcd.c ****   USB_OTG_EPTypeDef *ep;
 330:Drivers/STM32F4xx_HAL_Driver/Src/stm32f4xx_hal_pcd.c ****   uint32_t hclk = 180000000U;
 331:Drivers/STM32F4xx_HAL_Driver/Src/stm32f4xx_hal_pcd.c ****   
 332:Drivers/STM32F4xx_HAL_Driver/Src/stm32f4xx_hal_pcd.c ****   /* ensure that we are in device mode */
 333:Drivers/STM32F4xx_HAL_Driver/Src/stm32f4xx_hal_pcd.c ****   if (USB_GetMode(hpcd->Instance) == USB_OTG_MODE_DEVICE)
 334:Drivers/STM32F4xx_HAL_Driver/Src/stm32f4xx_hal_pcd.c ****   {    
 335:Drivers/STM32F4xx_HAL_Driver/Src/stm32f4xx_hal_pcd.c ****     /* avoid spurious interrupt */
 336:Drivers/STM32F4xx_HAL_Driver/Src/stm32f4xx_hal_pcd.c ****     if(__HAL_PCD_IS_INVALID_INTERRUPT(hpcd)) 
 337:Drivers/STM32F4xx_HAL_Driver/Src/stm32f4xx_hal_pcd.c ****     {
 338:Drivers/STM32F4xx_HAL_Driver/Src/stm32f4xx_hal_pcd.c ****       return;
 339:Drivers/STM32F4xx_HAL_Driver/Src/stm32f4xx_hal_pcd.c ****     }
 340:Drivers/STM32F4xx_HAL_Driver/Src/stm32f4xx_hal_pcd.c ****     
 341:Drivers/STM32F4xx_HAL_Driver/Src/stm32f4xx_hal_pcd.c ****     if(__HAL_PCD_GET_FLAG(hpcd, USB_OTG_GINTSTS_MMIS))
 342:Drivers/STM32F4xx_HAL_Driver/Src/stm32f4xx_hal_pcd.c ****     {
 343:Drivers/STM32F4xx_HAL_Driver/Src/stm32f4xx_hal_pcd.c ****      /* incorrect mode, acknowledge the interrupt */
 344:Drivers/STM32F4xx_HAL_Driver/Src/stm32f4xx_hal_pcd.c ****       __HAL_PCD_CLEAR_FLAG(hpcd, USB_OTG_GINTSTS_MMIS);
 345:Drivers/STM32F4xx_HAL_Driver/Src/stm32f4xx_hal_pcd.c ****     }
 346:Drivers/STM32F4xx_HAL_Driver/Src/stm32f4xx_hal_pcd.c ****     
 347:Drivers/STM32F4xx_HAL_Driver/Src/stm32f4xx_hal_pcd.c ****     if(__HAL_PCD_GET_FLAG(hpcd, USB_OTG_GINTSTS_OEPINT))
 348:Drivers/STM32F4xx_HAL_Driver/Src/stm32f4xx_hal_pcd.c ****     {
 349:Drivers/STM32F4xx_HAL_Driver/Src/stm32f4xx_hal_pcd.c ****       epnum = 0U;
 350:Drivers/STM32F4xx_HAL_Driver/Src/stm32f4xx_hal_pcd.c ****       
 351:Drivers/STM32F4xx_HAL_Driver/Src/stm32f4xx_hal_pcd.c ****       /* Read in the device interrupt bits */
 352:Drivers/STM32F4xx_HAL_Driver/Src/stm32f4xx_hal_pcd.c ****       ep_intr = USB_ReadDevAllOutEpInterrupt(hpcd->Instance);
 353:Drivers/STM32F4xx_HAL_Driver/Src/stm32f4xx_hal_pcd.c ****       
 354:Drivers/STM32F4xx_HAL_Driver/Src/stm32f4xx_hal_pcd.c ****       while ( ep_intr )
 355:Drivers/STM32F4xx_HAL_Driver/Src/stm32f4xx_hal_pcd.c ****       {
 356:Drivers/STM32F4xx_HAL_Driver/Src/stm32f4xx_hal_pcd.c ****         if (ep_intr & 0x1U)
 357:Drivers/STM32F4xx_HAL_Driver/Src/stm32f4xx_hal_pcd.c ****         {
 358:Drivers/STM32F4xx_HAL_Driver/Src/stm32f4xx_hal_pcd.c ****           epint = USB_ReadDevOutEPInterrupt(hpcd->Instance, epnum);
 359:Drivers/STM32F4xx_HAL_Driver/Src/stm32f4xx_hal_pcd.c ****           
 360:Drivers/STM32F4xx_HAL_Driver/Src/stm32f4xx_hal_pcd.c ****           if(( epint & USB_OTG_DOEPINT_XFRC) == USB_OTG_DOEPINT_XFRC)
 361:Drivers/STM32F4xx_HAL_Driver/Src/stm32f4xx_hal_pcd.c ****           {
 362:Drivers/STM32F4xx_HAL_Driver/Src/stm32f4xx_hal_pcd.c ****             CLEAR_OUT_EP_INTR(epnum, USB_OTG_DOEPINT_XFRC);
 363:Drivers/STM32F4xx_HAL_Driver/Src/stm32f4xx_hal_pcd.c ****             
 364:Drivers/STM32F4xx_HAL_Driver/Src/stm32f4xx_hal_pcd.c ****             if(hpcd->Init.dma_enable == 1U)
 365:Drivers/STM32F4xx_HAL_Driver/Src/stm32f4xx_hal_pcd.c ****             {
 366:Drivers/STM32F4xx_HAL_Driver/Src/stm32f4xx_hal_pcd.c ****               hpcd->OUT_ep[epnum].xfer_count = hpcd->OUT_ep[epnum].maxpacket- (USBx_OUTEP(epnum)->D
 367:Drivers/STM32F4xx_HAL_Driver/Src/stm32f4xx_hal_pcd.c ****               hpcd->OUT_ep[epnum].xfer_buff += hpcd->OUT_ep[epnum].maxpacket;            
 368:Drivers/STM32F4xx_HAL_Driver/Src/stm32f4xx_hal_pcd.c ****             }
 369:Drivers/STM32F4xx_HAL_Driver/Src/stm32f4xx_hal_pcd.c ****             
 370:Drivers/STM32F4xx_HAL_Driver/Src/stm32f4xx_hal_pcd.c ****             HAL_PCD_DataOutStageCallback(hpcd, epnum);
 371:Drivers/STM32F4xx_HAL_Driver/Src/stm32f4xx_hal_pcd.c ****             if(hpcd->Init.dma_enable == 1U)
 372:Drivers/STM32F4xx_HAL_Driver/Src/stm32f4xx_hal_pcd.c ****             {
 373:Drivers/STM32F4xx_HAL_Driver/Src/stm32f4xx_hal_pcd.c ****               if((epnum == 0U) && (hpcd->OUT_ep[epnum].xfer_len == 0U))
ARM GAS  /tmp/ccUYINNg.s 			page 8


 374:Drivers/STM32F4xx_HAL_Driver/Src/stm32f4xx_hal_pcd.c ****               {
 375:Drivers/STM32F4xx_HAL_Driver/Src/stm32f4xx_hal_pcd.c ****                  /* this is ZLP, so prepare EP0 for next setup */
 376:Drivers/STM32F4xx_HAL_Driver/Src/stm32f4xx_hal_pcd.c ****                 USB_EP0_OutStart(hpcd->Instance, 1U, (uint8_t *)hpcd->Setup);
 377:Drivers/STM32F4xx_HAL_Driver/Src/stm32f4xx_hal_pcd.c ****               }              
 378:Drivers/STM32F4xx_HAL_Driver/Src/stm32f4xx_hal_pcd.c ****             }
 379:Drivers/STM32F4xx_HAL_Driver/Src/stm32f4xx_hal_pcd.c ****           }
 380:Drivers/STM32F4xx_HAL_Driver/Src/stm32f4xx_hal_pcd.c ****           
 381:Drivers/STM32F4xx_HAL_Driver/Src/stm32f4xx_hal_pcd.c ****           if(( epint & USB_OTG_DOEPINT_STUP) == USB_OTG_DOEPINT_STUP)
 382:Drivers/STM32F4xx_HAL_Driver/Src/stm32f4xx_hal_pcd.c ****           {
 383:Drivers/STM32F4xx_HAL_Driver/Src/stm32f4xx_hal_pcd.c ****             /* Inform the upper layer that a setup packet is available */
 384:Drivers/STM32F4xx_HAL_Driver/Src/stm32f4xx_hal_pcd.c ****             HAL_PCD_SetupStageCallback(hpcd);
 385:Drivers/STM32F4xx_HAL_Driver/Src/stm32f4xx_hal_pcd.c ****             CLEAR_OUT_EP_INTR(epnum, USB_OTG_DOEPINT_STUP);
 386:Drivers/STM32F4xx_HAL_Driver/Src/stm32f4xx_hal_pcd.c ****           }
 387:Drivers/STM32F4xx_HAL_Driver/Src/stm32f4xx_hal_pcd.c ****           
 388:Drivers/STM32F4xx_HAL_Driver/Src/stm32f4xx_hal_pcd.c ****           if(( epint & USB_OTG_DOEPINT_OTEPDIS) == USB_OTG_DOEPINT_OTEPDIS)
 389:Drivers/STM32F4xx_HAL_Driver/Src/stm32f4xx_hal_pcd.c ****           {
 390:Drivers/STM32F4xx_HAL_Driver/Src/stm32f4xx_hal_pcd.c ****             CLEAR_OUT_EP_INTR(epnum, USB_OTG_DOEPINT_OTEPDIS);
 391:Drivers/STM32F4xx_HAL_Driver/Src/stm32f4xx_hal_pcd.c ****           }
 392:Drivers/STM32F4xx_HAL_Driver/Src/stm32f4xx_hal_pcd.c **** 
 393:Drivers/STM32F4xx_HAL_Driver/Src/stm32f4xx_hal_pcd.c **** #ifdef USB_OTG_DOEPINT_OTEPSPR 
 394:Drivers/STM32F4xx_HAL_Driver/Src/stm32f4xx_hal_pcd.c ****           /* Clear Status Phase Received interrupt */
 395:Drivers/STM32F4xx_HAL_Driver/Src/stm32f4xx_hal_pcd.c ****           if(( epint & USB_OTG_DOEPINT_OTEPSPR) == USB_OTG_DOEPINT_OTEPSPR)
 396:Drivers/STM32F4xx_HAL_Driver/Src/stm32f4xx_hal_pcd.c ****           {
 397:Drivers/STM32F4xx_HAL_Driver/Src/stm32f4xx_hal_pcd.c ****             CLEAR_OUT_EP_INTR(epnum, USB_OTG_DOEPINT_OTEPSPR);
 398:Drivers/STM32F4xx_HAL_Driver/Src/stm32f4xx_hal_pcd.c ****           }
 399:Drivers/STM32F4xx_HAL_Driver/Src/stm32f4xx_hal_pcd.c **** #endif /* USB_OTG_DOEPINT_OTEPSPR */
 400:Drivers/STM32F4xx_HAL_Driver/Src/stm32f4xx_hal_pcd.c ****         }
 401:Drivers/STM32F4xx_HAL_Driver/Src/stm32f4xx_hal_pcd.c ****         epnum++;
 402:Drivers/STM32F4xx_HAL_Driver/Src/stm32f4xx_hal_pcd.c ****         ep_intr >>= 1U;
 403:Drivers/STM32F4xx_HAL_Driver/Src/stm32f4xx_hal_pcd.c ****       }
 404:Drivers/STM32F4xx_HAL_Driver/Src/stm32f4xx_hal_pcd.c ****     }
 405:Drivers/STM32F4xx_HAL_Driver/Src/stm32f4xx_hal_pcd.c ****     
 406:Drivers/STM32F4xx_HAL_Driver/Src/stm32f4xx_hal_pcd.c ****     if(__HAL_PCD_GET_FLAG(hpcd, USB_OTG_GINTSTS_IEPINT))
 407:Drivers/STM32F4xx_HAL_Driver/Src/stm32f4xx_hal_pcd.c ****     {
 408:Drivers/STM32F4xx_HAL_Driver/Src/stm32f4xx_hal_pcd.c ****       /* Read in the device interrupt bits */
 409:Drivers/STM32F4xx_HAL_Driver/Src/stm32f4xx_hal_pcd.c ****       ep_intr = USB_ReadDevAllInEpInterrupt(hpcd->Instance);
 410:Drivers/STM32F4xx_HAL_Driver/Src/stm32f4xx_hal_pcd.c ****       
 411:Drivers/STM32F4xx_HAL_Driver/Src/stm32f4xx_hal_pcd.c ****       epnum = 0U;
 412:Drivers/STM32F4xx_HAL_Driver/Src/stm32f4xx_hal_pcd.c ****       
 413:Drivers/STM32F4xx_HAL_Driver/Src/stm32f4xx_hal_pcd.c ****       while ( ep_intr )
 414:Drivers/STM32F4xx_HAL_Driver/Src/stm32f4xx_hal_pcd.c ****       {
 415:Drivers/STM32F4xx_HAL_Driver/Src/stm32f4xx_hal_pcd.c ****         if (ep_intr & 0x1U) /* In ITR */
 416:Drivers/STM32F4xx_HAL_Driver/Src/stm32f4xx_hal_pcd.c ****         {
 417:Drivers/STM32F4xx_HAL_Driver/Src/stm32f4xx_hal_pcd.c ****           epint = USB_ReadDevInEPInterrupt(hpcd->Instance, epnum);
 418:Drivers/STM32F4xx_HAL_Driver/Src/stm32f4xx_hal_pcd.c **** 
 419:Drivers/STM32F4xx_HAL_Driver/Src/stm32f4xx_hal_pcd.c ****            if(( epint & USB_OTG_DIEPINT_XFRC) == USB_OTG_DIEPINT_XFRC)
 420:Drivers/STM32F4xx_HAL_Driver/Src/stm32f4xx_hal_pcd.c ****           {
 421:Drivers/STM32F4xx_HAL_Driver/Src/stm32f4xx_hal_pcd.c ****             fifoemptymsk = 0x1U << epnum;
 422:Drivers/STM32F4xx_HAL_Driver/Src/stm32f4xx_hal_pcd.c ****             USBx_DEVICE->DIEPEMPMSK &= ~fifoemptymsk;
 423:Drivers/STM32F4xx_HAL_Driver/Src/stm32f4xx_hal_pcd.c ****             
 424:Drivers/STM32F4xx_HAL_Driver/Src/stm32f4xx_hal_pcd.c ****             CLEAR_IN_EP_INTR(epnum, USB_OTG_DIEPINT_XFRC);
 425:Drivers/STM32F4xx_HAL_Driver/Src/stm32f4xx_hal_pcd.c ****             
 426:Drivers/STM32F4xx_HAL_Driver/Src/stm32f4xx_hal_pcd.c ****             if (hpcd->Init.dma_enable == 1U)
 427:Drivers/STM32F4xx_HAL_Driver/Src/stm32f4xx_hal_pcd.c ****             {
 428:Drivers/STM32F4xx_HAL_Driver/Src/stm32f4xx_hal_pcd.c ****               hpcd->IN_ep[epnum].xfer_buff += hpcd->IN_ep[epnum].maxpacket; 
 429:Drivers/STM32F4xx_HAL_Driver/Src/stm32f4xx_hal_pcd.c ****             }
 430:Drivers/STM32F4xx_HAL_Driver/Src/stm32f4xx_hal_pcd.c ****                                       
ARM GAS  /tmp/ccUYINNg.s 			page 9


 431:Drivers/STM32F4xx_HAL_Driver/Src/stm32f4xx_hal_pcd.c ****             HAL_PCD_DataInStageCallback(hpcd, epnum);
 432:Drivers/STM32F4xx_HAL_Driver/Src/stm32f4xx_hal_pcd.c **** 
 433:Drivers/STM32F4xx_HAL_Driver/Src/stm32f4xx_hal_pcd.c ****             if (hpcd->Init.dma_enable == 1U)
 434:Drivers/STM32F4xx_HAL_Driver/Src/stm32f4xx_hal_pcd.c ****             {
 435:Drivers/STM32F4xx_HAL_Driver/Src/stm32f4xx_hal_pcd.c ****               /* this is ZLP, so prepare EP0 for next setup */
 436:Drivers/STM32F4xx_HAL_Driver/Src/stm32f4xx_hal_pcd.c ****               if((epnum == 0U) && (hpcd->IN_ep[epnum].xfer_len == 0U))
 437:Drivers/STM32F4xx_HAL_Driver/Src/stm32f4xx_hal_pcd.c ****               {
 438:Drivers/STM32F4xx_HAL_Driver/Src/stm32f4xx_hal_pcd.c ****                 /* prepare to rx more setup packets */
 439:Drivers/STM32F4xx_HAL_Driver/Src/stm32f4xx_hal_pcd.c ****                 USB_EP0_OutStart(hpcd->Instance, 1U, (uint8_t *)hpcd->Setup);
 440:Drivers/STM32F4xx_HAL_Driver/Src/stm32f4xx_hal_pcd.c ****               }
 441:Drivers/STM32F4xx_HAL_Driver/Src/stm32f4xx_hal_pcd.c ****             }           
 442:Drivers/STM32F4xx_HAL_Driver/Src/stm32f4xx_hal_pcd.c ****           }
 443:Drivers/STM32F4xx_HAL_Driver/Src/stm32f4xx_hal_pcd.c ****            if(( epint & USB_OTG_DIEPINT_TOC) == USB_OTG_DIEPINT_TOC)
 444:Drivers/STM32F4xx_HAL_Driver/Src/stm32f4xx_hal_pcd.c ****           {
 445:Drivers/STM32F4xx_HAL_Driver/Src/stm32f4xx_hal_pcd.c ****             CLEAR_IN_EP_INTR(epnum, USB_OTG_DIEPINT_TOC);
 446:Drivers/STM32F4xx_HAL_Driver/Src/stm32f4xx_hal_pcd.c ****           }
 447:Drivers/STM32F4xx_HAL_Driver/Src/stm32f4xx_hal_pcd.c ****           if(( epint & USB_OTG_DIEPINT_ITTXFE) == USB_OTG_DIEPINT_ITTXFE)
 448:Drivers/STM32F4xx_HAL_Driver/Src/stm32f4xx_hal_pcd.c ****           {
 449:Drivers/STM32F4xx_HAL_Driver/Src/stm32f4xx_hal_pcd.c ****             CLEAR_IN_EP_INTR(epnum, USB_OTG_DIEPINT_ITTXFE);
 450:Drivers/STM32F4xx_HAL_Driver/Src/stm32f4xx_hal_pcd.c ****           }
 451:Drivers/STM32F4xx_HAL_Driver/Src/stm32f4xx_hal_pcd.c ****           if(( epint & USB_OTG_DIEPINT_INEPNE) == USB_OTG_DIEPINT_INEPNE)
 452:Drivers/STM32F4xx_HAL_Driver/Src/stm32f4xx_hal_pcd.c ****           {
 453:Drivers/STM32F4xx_HAL_Driver/Src/stm32f4xx_hal_pcd.c ****             CLEAR_IN_EP_INTR(epnum, USB_OTG_DIEPINT_INEPNE);
 454:Drivers/STM32F4xx_HAL_Driver/Src/stm32f4xx_hal_pcd.c ****           }
 455:Drivers/STM32F4xx_HAL_Driver/Src/stm32f4xx_hal_pcd.c ****           if(( epint & USB_OTG_DIEPINT_EPDISD) == USB_OTG_DIEPINT_EPDISD)
 456:Drivers/STM32F4xx_HAL_Driver/Src/stm32f4xx_hal_pcd.c ****           {
 457:Drivers/STM32F4xx_HAL_Driver/Src/stm32f4xx_hal_pcd.c ****             CLEAR_IN_EP_INTR(epnum, USB_OTG_DIEPINT_EPDISD);
 458:Drivers/STM32F4xx_HAL_Driver/Src/stm32f4xx_hal_pcd.c ****           }       
 459:Drivers/STM32F4xx_HAL_Driver/Src/stm32f4xx_hal_pcd.c ****           if(( epint & USB_OTG_DIEPINT_TXFE) == USB_OTG_DIEPINT_TXFE)
 460:Drivers/STM32F4xx_HAL_Driver/Src/stm32f4xx_hal_pcd.c ****           {
 461:Drivers/STM32F4xx_HAL_Driver/Src/stm32f4xx_hal_pcd.c ****             PCD_WriteEmptyTxFifo(hpcd , epnum);
 462:Drivers/STM32F4xx_HAL_Driver/Src/stm32f4xx_hal_pcd.c ****           }
 463:Drivers/STM32F4xx_HAL_Driver/Src/stm32f4xx_hal_pcd.c ****         }
 464:Drivers/STM32F4xx_HAL_Driver/Src/stm32f4xx_hal_pcd.c ****         epnum++;
 465:Drivers/STM32F4xx_HAL_Driver/Src/stm32f4xx_hal_pcd.c ****         ep_intr >>= 1U;
 466:Drivers/STM32F4xx_HAL_Driver/Src/stm32f4xx_hal_pcd.c ****       }
 467:Drivers/STM32F4xx_HAL_Driver/Src/stm32f4xx_hal_pcd.c ****     }
 468:Drivers/STM32F4xx_HAL_Driver/Src/stm32f4xx_hal_pcd.c ****     
 469:Drivers/STM32F4xx_HAL_Driver/Src/stm32f4xx_hal_pcd.c ****     /* Handle Resume Interrupt */
 470:Drivers/STM32F4xx_HAL_Driver/Src/stm32f4xx_hal_pcd.c ****     if(__HAL_PCD_GET_FLAG(hpcd, USB_OTG_GINTSTS_WKUINT))
 471:Drivers/STM32F4xx_HAL_Driver/Src/stm32f4xx_hal_pcd.c ****     {    
 472:Drivers/STM32F4xx_HAL_Driver/Src/stm32f4xx_hal_pcd.c ****       /* Clear the Remote Wake-up Signaling */
 473:Drivers/STM32F4xx_HAL_Driver/Src/stm32f4xx_hal_pcd.c ****       USBx_DEVICE->DCTL &= ~USB_OTG_DCTL_RWUSIG;
 474:Drivers/STM32F4xx_HAL_Driver/Src/stm32f4xx_hal_pcd.c **** 
 475:Drivers/STM32F4xx_HAL_Driver/Src/stm32f4xx_hal_pcd.c **** #ifdef USB_OTG_GLPMCFG_LPMEN
 476:Drivers/STM32F4xx_HAL_Driver/Src/stm32f4xx_hal_pcd.c ****       if(hpcd->LPM_State == LPM_L1)
 477:Drivers/STM32F4xx_HAL_Driver/Src/stm32f4xx_hal_pcd.c ****       {
 478:Drivers/STM32F4xx_HAL_Driver/Src/stm32f4xx_hal_pcd.c ****         hpcd->LPM_State = LPM_L0;
 479:Drivers/STM32F4xx_HAL_Driver/Src/stm32f4xx_hal_pcd.c ****         HAL_PCDEx_LPM_Callback(hpcd, PCD_LPM_L0_ACTIVE);
 480:Drivers/STM32F4xx_HAL_Driver/Src/stm32f4xx_hal_pcd.c ****       }
 481:Drivers/STM32F4xx_HAL_Driver/Src/stm32f4xx_hal_pcd.c ****       else
 482:Drivers/STM32F4xx_HAL_Driver/Src/stm32f4xx_hal_pcd.c **** #endif /* USB_OTG_GLPMCFG_LPMEN */
 483:Drivers/STM32F4xx_HAL_Driver/Src/stm32f4xx_hal_pcd.c ****       {
 484:Drivers/STM32F4xx_HAL_Driver/Src/stm32f4xx_hal_pcd.c ****         HAL_PCD_ResumeCallback(hpcd);
 485:Drivers/STM32F4xx_HAL_Driver/Src/stm32f4xx_hal_pcd.c ****       }
 486:Drivers/STM32F4xx_HAL_Driver/Src/stm32f4xx_hal_pcd.c ****       
 487:Drivers/STM32F4xx_HAL_Driver/Src/stm32f4xx_hal_pcd.c ****       __HAL_PCD_CLEAR_FLAG(hpcd, USB_OTG_GINTSTS_WKUINT);
ARM GAS  /tmp/ccUYINNg.s 			page 10


 488:Drivers/STM32F4xx_HAL_Driver/Src/stm32f4xx_hal_pcd.c ****     }
 489:Drivers/STM32F4xx_HAL_Driver/Src/stm32f4xx_hal_pcd.c ****     
 490:Drivers/STM32F4xx_HAL_Driver/Src/stm32f4xx_hal_pcd.c ****     /* Handle Suspend Interrupt */
 491:Drivers/STM32F4xx_HAL_Driver/Src/stm32f4xx_hal_pcd.c ****     if(__HAL_PCD_GET_FLAG(hpcd, USB_OTG_GINTSTS_USBSUSP))
 492:Drivers/STM32F4xx_HAL_Driver/Src/stm32f4xx_hal_pcd.c ****     {
 493:Drivers/STM32F4xx_HAL_Driver/Src/stm32f4xx_hal_pcd.c ****       if((USBx_DEVICE->DSTS & USB_OTG_DSTS_SUSPSTS) == USB_OTG_DSTS_SUSPSTS)
 494:Drivers/STM32F4xx_HAL_Driver/Src/stm32f4xx_hal_pcd.c ****       {
 495:Drivers/STM32F4xx_HAL_Driver/Src/stm32f4xx_hal_pcd.c ****         
 496:Drivers/STM32F4xx_HAL_Driver/Src/stm32f4xx_hal_pcd.c ****         HAL_PCD_SuspendCallback(hpcd);
 497:Drivers/STM32F4xx_HAL_Driver/Src/stm32f4xx_hal_pcd.c ****       }
 498:Drivers/STM32F4xx_HAL_Driver/Src/stm32f4xx_hal_pcd.c ****       __HAL_PCD_CLEAR_FLAG(hpcd, USB_OTG_GINTSTS_USBSUSP);
 499:Drivers/STM32F4xx_HAL_Driver/Src/stm32f4xx_hal_pcd.c ****     }
 500:Drivers/STM32F4xx_HAL_Driver/Src/stm32f4xx_hal_pcd.c **** 
 501:Drivers/STM32F4xx_HAL_Driver/Src/stm32f4xx_hal_pcd.c **** #ifdef USB_OTG_GLPMCFG_LPMEN
 502:Drivers/STM32F4xx_HAL_Driver/Src/stm32f4xx_hal_pcd.c ****     /* Handle LPM Interrupt */ 
 503:Drivers/STM32F4xx_HAL_Driver/Src/stm32f4xx_hal_pcd.c ****     if(__HAL_PCD_GET_FLAG(hpcd, USB_OTG_GINTSTS_LPMINT))
 504:Drivers/STM32F4xx_HAL_Driver/Src/stm32f4xx_hal_pcd.c ****     {
 505:Drivers/STM32F4xx_HAL_Driver/Src/stm32f4xx_hal_pcd.c ****       __HAL_PCD_CLEAR_FLAG(hpcd, USB_OTG_GINTSTS_LPMINT);      
 506:Drivers/STM32F4xx_HAL_Driver/Src/stm32f4xx_hal_pcd.c ****       if( hpcd->LPM_State == LPM_L0)
 507:Drivers/STM32F4xx_HAL_Driver/Src/stm32f4xx_hal_pcd.c ****       {
 508:Drivers/STM32F4xx_HAL_Driver/Src/stm32f4xx_hal_pcd.c ****         hpcd->LPM_State = LPM_L1;
 509:Drivers/STM32F4xx_HAL_Driver/Src/stm32f4xx_hal_pcd.c ****         hpcd->BESL = (hpcd->Instance->GLPMCFG & USB_OTG_GLPMCFG_BESL) >> 2U;
 510:Drivers/STM32F4xx_HAL_Driver/Src/stm32f4xx_hal_pcd.c ****         HAL_PCDEx_LPM_Callback(hpcd, PCD_LPM_L1_ACTIVE);
 511:Drivers/STM32F4xx_HAL_Driver/Src/stm32f4xx_hal_pcd.c ****       }
 512:Drivers/STM32F4xx_HAL_Driver/Src/stm32f4xx_hal_pcd.c ****       else
 513:Drivers/STM32F4xx_HAL_Driver/Src/stm32f4xx_hal_pcd.c ****       {
 514:Drivers/STM32F4xx_HAL_Driver/Src/stm32f4xx_hal_pcd.c ****         HAL_PCD_SuspendCallback(hpcd);
 515:Drivers/STM32F4xx_HAL_Driver/Src/stm32f4xx_hal_pcd.c ****       }
 516:Drivers/STM32F4xx_HAL_Driver/Src/stm32f4xx_hal_pcd.c ****     }
 517:Drivers/STM32F4xx_HAL_Driver/Src/stm32f4xx_hal_pcd.c **** #endif /* USB_OTG_GLPMCFG_LPMEN */
 518:Drivers/STM32F4xx_HAL_Driver/Src/stm32f4xx_hal_pcd.c **** 
 519:Drivers/STM32F4xx_HAL_Driver/Src/stm32f4xx_hal_pcd.c ****     /* Handle Reset Interrupt */
 520:Drivers/STM32F4xx_HAL_Driver/Src/stm32f4xx_hal_pcd.c ****     if(__HAL_PCD_GET_FLAG(hpcd, USB_OTG_GINTSTS_USBRST))
 521:Drivers/STM32F4xx_HAL_Driver/Src/stm32f4xx_hal_pcd.c ****     {
 522:Drivers/STM32F4xx_HAL_Driver/Src/stm32f4xx_hal_pcd.c ****       USBx_DEVICE->DCTL &= ~USB_OTG_DCTL_RWUSIG; 
 523:Drivers/STM32F4xx_HAL_Driver/Src/stm32f4xx_hal_pcd.c ****       USB_FlushTxFifo(hpcd->Instance , 0x10U);
 524:Drivers/STM32F4xx_HAL_Driver/Src/stm32f4xx_hal_pcd.c ****       
 525:Drivers/STM32F4xx_HAL_Driver/Src/stm32f4xx_hal_pcd.c ****       for (i = 0U; i < hpcd->Init.dev_endpoints; i++)
 526:Drivers/STM32F4xx_HAL_Driver/Src/stm32f4xx_hal_pcd.c ****       {
 527:Drivers/STM32F4xx_HAL_Driver/Src/stm32f4xx_hal_pcd.c ****         USBx_INEP(i)->DIEPINT = 0xFFU;
 528:Drivers/STM32F4xx_HAL_Driver/Src/stm32f4xx_hal_pcd.c ****         USBx_OUTEP(i)->DOEPINT = 0xFFU;
 529:Drivers/STM32F4xx_HAL_Driver/Src/stm32f4xx_hal_pcd.c ****       }
 530:Drivers/STM32F4xx_HAL_Driver/Src/stm32f4xx_hal_pcd.c ****       USBx_DEVICE->DAINT = 0xFFFFFFFFU;
 531:Drivers/STM32F4xx_HAL_Driver/Src/stm32f4xx_hal_pcd.c ****       USBx_DEVICE->DAINTMSK |= 0x10001U;
 532:Drivers/STM32F4xx_HAL_Driver/Src/stm32f4xx_hal_pcd.c ****       
 533:Drivers/STM32F4xx_HAL_Driver/Src/stm32f4xx_hal_pcd.c ****       if(hpcd->Init.use_dedicated_ep1)
 534:Drivers/STM32F4xx_HAL_Driver/Src/stm32f4xx_hal_pcd.c ****       {
 535:Drivers/STM32F4xx_HAL_Driver/Src/stm32f4xx_hal_pcd.c ****         USBx_DEVICE->DOUTEP1MSK |= (USB_OTG_DOEPMSK_STUPM | USB_OTG_DOEPMSK_XFRCM | USB_OTG_DOEPMSK
 536:Drivers/STM32F4xx_HAL_Driver/Src/stm32f4xx_hal_pcd.c ****         USBx_DEVICE->DINEP1MSK |= (USB_OTG_DIEPMSK_TOM | USB_OTG_DIEPMSK_XFRCM | USB_OTG_DIEPMSK_EP
 537:Drivers/STM32F4xx_HAL_Driver/Src/stm32f4xx_hal_pcd.c ****       }
 538:Drivers/STM32F4xx_HAL_Driver/Src/stm32f4xx_hal_pcd.c ****       else
 539:Drivers/STM32F4xx_HAL_Driver/Src/stm32f4xx_hal_pcd.c ****       {
 540:Drivers/STM32F4xx_HAL_Driver/Src/stm32f4xx_hal_pcd.c **** #ifdef USB_OTG_DOEPINT_OTEPSPR
 541:Drivers/STM32F4xx_HAL_Driver/Src/stm32f4xx_hal_pcd.c ****         USBx_DEVICE->DOEPMSK |= (USB_OTG_DOEPMSK_STUPM | USB_OTG_DOEPMSK_XFRCM | USB_OTG_DOEPMSK_EP
 542:Drivers/STM32F4xx_HAL_Driver/Src/stm32f4xx_hal_pcd.c **** #else
 543:Drivers/STM32F4xx_HAL_Driver/Src/stm32f4xx_hal_pcd.c ****         USBx_DEVICE->DOEPMSK |= (USB_OTG_DOEPMSK_STUPM | USB_OTG_DOEPMSK_XFRCM | USB_OTG_DOEPMSK_EP
 544:Drivers/STM32F4xx_HAL_Driver/Src/stm32f4xx_hal_pcd.c **** #endif /* USB_OTG_DOEPINT_OTEPSPR */
ARM GAS  /tmp/ccUYINNg.s 			page 11


 545:Drivers/STM32F4xx_HAL_Driver/Src/stm32f4xx_hal_pcd.c ****         USBx_DEVICE->DIEPMSK |= (USB_OTG_DIEPMSK_TOM | USB_OTG_DIEPMSK_XFRCM | USB_OTG_DIEPMSK_EPDM
 546:Drivers/STM32F4xx_HAL_Driver/Src/stm32f4xx_hal_pcd.c ****       }
 547:Drivers/STM32F4xx_HAL_Driver/Src/stm32f4xx_hal_pcd.c ****       
 548:Drivers/STM32F4xx_HAL_Driver/Src/stm32f4xx_hal_pcd.c ****       /* Set Default Address to 0 */
 549:Drivers/STM32F4xx_HAL_Driver/Src/stm32f4xx_hal_pcd.c ****       USBx_DEVICE->DCFG &= ~USB_OTG_DCFG_DAD;
 550:Drivers/STM32F4xx_HAL_Driver/Src/stm32f4xx_hal_pcd.c ****       
 551:Drivers/STM32F4xx_HAL_Driver/Src/stm32f4xx_hal_pcd.c ****       /* setup EP0 to receive SETUP packets */
 552:Drivers/STM32F4xx_HAL_Driver/Src/stm32f4xx_hal_pcd.c ****       USB_EP0_OutStart(hpcd->Instance, hpcd->Init.dma_enable, (uint8_t *)hpcd->Setup);
 553:Drivers/STM32F4xx_HAL_Driver/Src/stm32f4xx_hal_pcd.c ****         
 554:Drivers/STM32F4xx_HAL_Driver/Src/stm32f4xx_hal_pcd.c ****       __HAL_PCD_CLEAR_FLAG(hpcd, USB_OTG_GINTSTS_USBRST);
 555:Drivers/STM32F4xx_HAL_Driver/Src/stm32f4xx_hal_pcd.c ****     }
 556:Drivers/STM32F4xx_HAL_Driver/Src/stm32f4xx_hal_pcd.c ****     
 557:Drivers/STM32F4xx_HAL_Driver/Src/stm32f4xx_hal_pcd.c ****     /* Handle Enumeration done Interrupt */
 558:Drivers/STM32F4xx_HAL_Driver/Src/stm32f4xx_hal_pcd.c ****     if(__HAL_PCD_GET_FLAG(hpcd, USB_OTG_GINTSTS_ENUMDNE))
 559:Drivers/STM32F4xx_HAL_Driver/Src/stm32f4xx_hal_pcd.c ****     {
 560:Drivers/STM32F4xx_HAL_Driver/Src/stm32f4xx_hal_pcd.c ****       USB_ActivateSetup(hpcd->Instance);
 561:Drivers/STM32F4xx_HAL_Driver/Src/stm32f4xx_hal_pcd.c ****       hpcd->Instance->GUSBCFG &= ~USB_OTG_GUSBCFG_TRDT;
 562:Drivers/STM32F4xx_HAL_Driver/Src/stm32f4xx_hal_pcd.c ****       
 563:Drivers/STM32F4xx_HAL_Driver/Src/stm32f4xx_hal_pcd.c ****       if ( USB_GetDevSpeed(hpcd->Instance) == USB_OTG_SPEED_HIGH)
 564:Drivers/STM32F4xx_HAL_Driver/Src/stm32f4xx_hal_pcd.c ****       {
 565:Drivers/STM32F4xx_HAL_Driver/Src/stm32f4xx_hal_pcd.c ****         hpcd->Init.speed            = USB_OTG_SPEED_HIGH;
 566:Drivers/STM32F4xx_HAL_Driver/Src/stm32f4xx_hal_pcd.c ****         hpcd->Init.ep0_mps          = USB_OTG_HS_MAX_PACKET_SIZE ;    
 567:Drivers/STM32F4xx_HAL_Driver/Src/stm32f4xx_hal_pcd.c ****         hpcd->Instance->GUSBCFG |= (uint32_t)((USBD_HS_TRDT_VALUE << 10U) & USB_OTG_GUSBCFG_TRDT);
 568:Drivers/STM32F4xx_HAL_Driver/Src/stm32f4xx_hal_pcd.c ****       }
 569:Drivers/STM32F4xx_HAL_Driver/Src/stm32f4xx_hal_pcd.c ****       else
 570:Drivers/STM32F4xx_HAL_Driver/Src/stm32f4xx_hal_pcd.c ****       {
 571:Drivers/STM32F4xx_HAL_Driver/Src/stm32f4xx_hal_pcd.c ****         hpcd->Init.speed            = USB_OTG_SPEED_FULL;
 572:Drivers/STM32F4xx_HAL_Driver/Src/stm32f4xx_hal_pcd.c ****         hpcd->Init.ep0_mps          = USB_OTG_FS_MAX_PACKET_SIZE ;  
 573:Drivers/STM32F4xx_HAL_Driver/Src/stm32f4xx_hal_pcd.c ****         
 574:Drivers/STM32F4xx_HAL_Driver/Src/stm32f4xx_hal_pcd.c ****         /* The USBTRD is configured according to the tables below, depending on AHB frequency 
 575:Drivers/STM32F4xx_HAL_Driver/Src/stm32f4xx_hal_pcd.c ****         used by application. In the low AHB frequency range it is used to stretch enough the USB re
 576:Drivers/STM32F4xx_HAL_Driver/Src/stm32f4xx_hal_pcd.c ****         time to IN tokens, the USB turnaround time, so to compensate for the longer AHB read access
 577:Drivers/STM32F4xx_HAL_Driver/Src/stm32f4xx_hal_pcd.c ****         latency to the Data FIFO */
 578:Drivers/STM32F4xx_HAL_Driver/Src/stm32f4xx_hal_pcd.c ****         
 579:Drivers/STM32F4xx_HAL_Driver/Src/stm32f4xx_hal_pcd.c ****         /* Get hclk frequency value */
 580:Drivers/STM32F4xx_HAL_Driver/Src/stm32f4xx_hal_pcd.c ****         hclk = HAL_RCC_GetHCLKFreq();
 581:Drivers/STM32F4xx_HAL_Driver/Src/stm32f4xx_hal_pcd.c ****         
 582:Drivers/STM32F4xx_HAL_Driver/Src/stm32f4xx_hal_pcd.c ****         if((hclk >= 14200000U)&&(hclk < 15000000U))
 583:Drivers/STM32F4xx_HAL_Driver/Src/stm32f4xx_hal_pcd.c ****         {
 584:Drivers/STM32F4xx_HAL_Driver/Src/stm32f4xx_hal_pcd.c ****           /* hclk Clock Range between 14.2-15 MHz */
 585:Drivers/STM32F4xx_HAL_Driver/Src/stm32f4xx_hal_pcd.c ****           hpcd->Instance->GUSBCFG |= (uint32_t)((0xFU << 10U) & USB_OTG_GUSBCFG_TRDT);
 586:Drivers/STM32F4xx_HAL_Driver/Src/stm32f4xx_hal_pcd.c ****         }
 587:Drivers/STM32F4xx_HAL_Driver/Src/stm32f4xx_hal_pcd.c ****         
 588:Drivers/STM32F4xx_HAL_Driver/Src/stm32f4xx_hal_pcd.c ****         else if((hclk >= 15000000U)&&(hclk < 16000000U))
 589:Drivers/STM32F4xx_HAL_Driver/Src/stm32f4xx_hal_pcd.c ****         {
 590:Drivers/STM32F4xx_HAL_Driver/Src/stm32f4xx_hal_pcd.c ****           /* hclk Clock Range between 15-16 MHz */
 591:Drivers/STM32F4xx_HAL_Driver/Src/stm32f4xx_hal_pcd.c ****           hpcd->Instance->GUSBCFG |= (uint32_t)((0xEU << 10U) & USB_OTG_GUSBCFG_TRDT);
 592:Drivers/STM32F4xx_HAL_Driver/Src/stm32f4xx_hal_pcd.c ****         }
 593:Drivers/STM32F4xx_HAL_Driver/Src/stm32f4xx_hal_pcd.c ****         
 594:Drivers/STM32F4xx_HAL_Driver/Src/stm32f4xx_hal_pcd.c ****         else if((hclk >= 16000000U)&&(hclk < 17200000U))
 595:Drivers/STM32F4xx_HAL_Driver/Src/stm32f4xx_hal_pcd.c ****         {
 596:Drivers/STM32F4xx_HAL_Driver/Src/stm32f4xx_hal_pcd.c ****           /* hclk Clock Range between 16-17.2 MHz */
 597:Drivers/STM32F4xx_HAL_Driver/Src/stm32f4xx_hal_pcd.c ****           hpcd->Instance->GUSBCFG |= (uint32_t)((0xDU << 10U) & USB_OTG_GUSBCFG_TRDT);
 598:Drivers/STM32F4xx_HAL_Driver/Src/stm32f4xx_hal_pcd.c ****         }
 599:Drivers/STM32F4xx_HAL_Driver/Src/stm32f4xx_hal_pcd.c ****         
 600:Drivers/STM32F4xx_HAL_Driver/Src/stm32f4xx_hal_pcd.c ****         else if((hclk >= 17200000U)&&(hclk < 18500000U))
 601:Drivers/STM32F4xx_HAL_Driver/Src/stm32f4xx_hal_pcd.c ****         {
ARM GAS  /tmp/ccUYINNg.s 			page 12


 602:Drivers/STM32F4xx_HAL_Driver/Src/stm32f4xx_hal_pcd.c ****           /* hclk Clock Range between 17.2-18.5 MHz */
 603:Drivers/STM32F4xx_HAL_Driver/Src/stm32f4xx_hal_pcd.c ****           hpcd->Instance->GUSBCFG |= (uint32_t)((0xCU << 10U) & USB_OTG_GUSBCFG_TRDT);
 604:Drivers/STM32F4xx_HAL_Driver/Src/stm32f4xx_hal_pcd.c ****         }
 605:Drivers/STM32F4xx_HAL_Driver/Src/stm32f4xx_hal_pcd.c ****         
 606:Drivers/STM32F4xx_HAL_Driver/Src/stm32f4xx_hal_pcd.c ****         else if((hclk >= 18500000U)&&(hclk < 20000000U))
 607:Drivers/STM32F4xx_HAL_Driver/Src/stm32f4xx_hal_pcd.c ****         {
 608:Drivers/STM32F4xx_HAL_Driver/Src/stm32f4xx_hal_pcd.c ****           /* hclk Clock Range between 18.5-20 MHz */
 609:Drivers/STM32F4xx_HAL_Driver/Src/stm32f4xx_hal_pcd.c ****           hpcd->Instance->GUSBCFG |= (uint32_t)((0xBU << 10U) & USB_OTG_GUSBCFG_TRDT);
 610:Drivers/STM32F4xx_HAL_Driver/Src/stm32f4xx_hal_pcd.c ****         }
 611:Drivers/STM32F4xx_HAL_Driver/Src/stm32f4xx_hal_pcd.c ****         
 612:Drivers/STM32F4xx_HAL_Driver/Src/stm32f4xx_hal_pcd.c ****         else if((hclk >= 20000000U)&&(hclk < 21800000U))
 613:Drivers/STM32F4xx_HAL_Driver/Src/stm32f4xx_hal_pcd.c ****         {
 614:Drivers/STM32F4xx_HAL_Driver/Src/stm32f4xx_hal_pcd.c ****           /* hclk Clock Range between 20-21.8 MHz */
 615:Drivers/STM32F4xx_HAL_Driver/Src/stm32f4xx_hal_pcd.c ****           hpcd->Instance->GUSBCFG |= (uint32_t)((0xAU << 10U) & USB_OTG_GUSBCFG_TRDT);
 616:Drivers/STM32F4xx_HAL_Driver/Src/stm32f4xx_hal_pcd.c ****         }
 617:Drivers/STM32F4xx_HAL_Driver/Src/stm32f4xx_hal_pcd.c ****         
 618:Drivers/STM32F4xx_HAL_Driver/Src/stm32f4xx_hal_pcd.c ****         else if((hclk >= 21800000U)&&(hclk < 24000000U))
 619:Drivers/STM32F4xx_HAL_Driver/Src/stm32f4xx_hal_pcd.c ****         {
 620:Drivers/STM32F4xx_HAL_Driver/Src/stm32f4xx_hal_pcd.c ****           /* hclk Clock Range between 21.8-24 MHz */
 621:Drivers/STM32F4xx_HAL_Driver/Src/stm32f4xx_hal_pcd.c ****           hpcd->Instance->GUSBCFG |= (uint32_t)((0x9U << 10U) & USB_OTG_GUSBCFG_TRDT);
 622:Drivers/STM32F4xx_HAL_Driver/Src/stm32f4xx_hal_pcd.c ****         }
 623:Drivers/STM32F4xx_HAL_Driver/Src/stm32f4xx_hal_pcd.c ****         
 624:Drivers/STM32F4xx_HAL_Driver/Src/stm32f4xx_hal_pcd.c ****         else if((hclk >= 24000000U)&&(hclk < 27700000U))
 625:Drivers/STM32F4xx_HAL_Driver/Src/stm32f4xx_hal_pcd.c ****         {
 626:Drivers/STM32F4xx_HAL_Driver/Src/stm32f4xx_hal_pcd.c ****           /* hclk Clock Range between 24-27.7 MHz */
 627:Drivers/STM32F4xx_HAL_Driver/Src/stm32f4xx_hal_pcd.c ****           hpcd->Instance->GUSBCFG |= (uint32_t)((0x8U << 10U) & USB_OTG_GUSBCFG_TRDT);
 628:Drivers/STM32F4xx_HAL_Driver/Src/stm32f4xx_hal_pcd.c ****         }
 629:Drivers/STM32F4xx_HAL_Driver/Src/stm32f4xx_hal_pcd.c ****         
 630:Drivers/STM32F4xx_HAL_Driver/Src/stm32f4xx_hal_pcd.c ****         else if((hclk >= 27700000U)&&(hclk < 32000000U))
 631:Drivers/STM32F4xx_HAL_Driver/Src/stm32f4xx_hal_pcd.c ****         {
 632:Drivers/STM32F4xx_HAL_Driver/Src/stm32f4xx_hal_pcd.c ****           /* hclk Clock Range between 27.7-32 MHz */
 633:Drivers/STM32F4xx_HAL_Driver/Src/stm32f4xx_hal_pcd.c ****           hpcd->Instance->GUSBCFG |= (uint32_t)((0x7U << 10U) & USB_OTG_GUSBCFG_TRDT);
 634:Drivers/STM32F4xx_HAL_Driver/Src/stm32f4xx_hal_pcd.c ****         }
 635:Drivers/STM32F4xx_HAL_Driver/Src/stm32f4xx_hal_pcd.c ****         
 636:Drivers/STM32F4xx_HAL_Driver/Src/stm32f4xx_hal_pcd.c ****         else /* if(hclk >= 32000000) */
 637:Drivers/STM32F4xx_HAL_Driver/Src/stm32f4xx_hal_pcd.c ****         {
 638:Drivers/STM32F4xx_HAL_Driver/Src/stm32f4xx_hal_pcd.c ****           /* hclk Clock Range between 32-180 MHz */
 639:Drivers/STM32F4xx_HAL_Driver/Src/stm32f4xx_hal_pcd.c ****           hpcd->Instance->GUSBCFG |= (uint32_t)((0x6U << 10U) & USB_OTG_GUSBCFG_TRDT);
 640:Drivers/STM32F4xx_HAL_Driver/Src/stm32f4xx_hal_pcd.c ****         }  
 641:Drivers/STM32F4xx_HAL_Driver/Src/stm32f4xx_hal_pcd.c ****       }
 642:Drivers/STM32F4xx_HAL_Driver/Src/stm32f4xx_hal_pcd.c ****       
 643:Drivers/STM32F4xx_HAL_Driver/Src/stm32f4xx_hal_pcd.c ****       HAL_PCD_ResetCallback(hpcd);
 644:Drivers/STM32F4xx_HAL_Driver/Src/stm32f4xx_hal_pcd.c ****       
 645:Drivers/STM32F4xx_HAL_Driver/Src/stm32f4xx_hal_pcd.c ****       __HAL_PCD_CLEAR_FLAG(hpcd, USB_OTG_GINTSTS_ENUMDNE);
 646:Drivers/STM32F4xx_HAL_Driver/Src/stm32f4xx_hal_pcd.c ****     }
 647:Drivers/STM32F4xx_HAL_Driver/Src/stm32f4xx_hal_pcd.c **** 
 648:Drivers/STM32F4xx_HAL_Driver/Src/stm32f4xx_hal_pcd.c ****     /* Handle RxQLevel Interrupt */
 649:Drivers/STM32F4xx_HAL_Driver/Src/stm32f4xx_hal_pcd.c ****     if(__HAL_PCD_GET_FLAG(hpcd, USB_OTG_GINTSTS_RXFLVL))
 650:Drivers/STM32F4xx_HAL_Driver/Src/stm32f4xx_hal_pcd.c ****     {
 651:Drivers/STM32F4xx_HAL_Driver/Src/stm32f4xx_hal_pcd.c ****       USB_MASK_INTERRUPT(hpcd->Instance, USB_OTG_GINTSTS_RXFLVL);
 652:Drivers/STM32F4xx_HAL_Driver/Src/stm32f4xx_hal_pcd.c ****       
 653:Drivers/STM32F4xx_HAL_Driver/Src/stm32f4xx_hal_pcd.c ****       temp = USBx->GRXSTSP;
 654:Drivers/STM32F4xx_HAL_Driver/Src/stm32f4xx_hal_pcd.c ****       
 655:Drivers/STM32F4xx_HAL_Driver/Src/stm32f4xx_hal_pcd.c ****       ep = &hpcd->OUT_ep[temp & USB_OTG_GRXSTSP_EPNUM];
 656:Drivers/STM32F4xx_HAL_Driver/Src/stm32f4xx_hal_pcd.c ****       
 657:Drivers/STM32F4xx_HAL_Driver/Src/stm32f4xx_hal_pcd.c ****       if(((temp & USB_OTG_GRXSTSP_PKTSTS) >> 17U) ==  STS_DATA_UPDT)
 658:Drivers/STM32F4xx_HAL_Driver/Src/stm32f4xx_hal_pcd.c ****       {
ARM GAS  /tmp/ccUYINNg.s 			page 13


 659:Drivers/STM32F4xx_HAL_Driver/Src/stm32f4xx_hal_pcd.c ****         if((temp & USB_OTG_GRXSTSP_BCNT) != 0U)
 660:Drivers/STM32F4xx_HAL_Driver/Src/stm32f4xx_hal_pcd.c ****         {
 661:Drivers/STM32F4xx_HAL_Driver/Src/stm32f4xx_hal_pcd.c ****           USB_ReadPacket(USBx, ep->xfer_buff, (temp & USB_OTG_GRXSTSP_BCNT) >> 4U);
 662:Drivers/STM32F4xx_HAL_Driver/Src/stm32f4xx_hal_pcd.c ****           ep->xfer_buff += (temp & USB_OTG_GRXSTSP_BCNT) >> 4U;
 663:Drivers/STM32F4xx_HAL_Driver/Src/stm32f4xx_hal_pcd.c ****           ep->xfer_count += (temp & USB_OTG_GRXSTSP_BCNT) >> 4U;
 664:Drivers/STM32F4xx_HAL_Driver/Src/stm32f4xx_hal_pcd.c ****         }
 665:Drivers/STM32F4xx_HAL_Driver/Src/stm32f4xx_hal_pcd.c ****       }
 666:Drivers/STM32F4xx_HAL_Driver/Src/stm32f4xx_hal_pcd.c ****       else if (((temp & USB_OTG_GRXSTSP_PKTSTS) >> 17U) ==  STS_SETUP_UPDT)
 667:Drivers/STM32F4xx_HAL_Driver/Src/stm32f4xx_hal_pcd.c ****       {
 668:Drivers/STM32F4xx_HAL_Driver/Src/stm32f4xx_hal_pcd.c ****         USB_ReadPacket(USBx, (uint8_t *)hpcd->Setup, 8U);
 669:Drivers/STM32F4xx_HAL_Driver/Src/stm32f4xx_hal_pcd.c ****         ep->xfer_count += (temp & USB_OTG_GRXSTSP_BCNT) >> 4U;
 670:Drivers/STM32F4xx_HAL_Driver/Src/stm32f4xx_hal_pcd.c ****       }
 671:Drivers/STM32F4xx_HAL_Driver/Src/stm32f4xx_hal_pcd.c ****       USB_UNMASK_INTERRUPT(hpcd->Instance, USB_OTG_GINTSTS_RXFLVL);
 672:Drivers/STM32F4xx_HAL_Driver/Src/stm32f4xx_hal_pcd.c ****     }
 673:Drivers/STM32F4xx_HAL_Driver/Src/stm32f4xx_hal_pcd.c ****     
 674:Drivers/STM32F4xx_HAL_Driver/Src/stm32f4xx_hal_pcd.c ****     /* Handle SOF Interrupt */
 675:Drivers/STM32F4xx_HAL_Driver/Src/stm32f4xx_hal_pcd.c ****     if(__HAL_PCD_GET_FLAG(hpcd, USB_OTG_GINTSTS_SOF))
 676:Drivers/STM32F4xx_HAL_Driver/Src/stm32f4xx_hal_pcd.c ****     {
 677:Drivers/STM32F4xx_HAL_Driver/Src/stm32f4xx_hal_pcd.c ****       HAL_PCD_SOFCallback(hpcd);
 678:Drivers/STM32F4xx_HAL_Driver/Src/stm32f4xx_hal_pcd.c ****       __HAL_PCD_CLEAR_FLAG(hpcd, USB_OTG_GINTSTS_SOF);
 679:Drivers/STM32F4xx_HAL_Driver/Src/stm32f4xx_hal_pcd.c ****     }
 680:Drivers/STM32F4xx_HAL_Driver/Src/stm32f4xx_hal_pcd.c ****     
 681:Drivers/STM32F4xx_HAL_Driver/Src/stm32f4xx_hal_pcd.c ****     /* Handle Incomplete ISO IN Interrupt */
 682:Drivers/STM32F4xx_HAL_Driver/Src/stm32f4xx_hal_pcd.c ****     if(__HAL_PCD_GET_FLAG(hpcd, USB_OTG_GINTSTS_IISOIXFR))
 683:Drivers/STM32F4xx_HAL_Driver/Src/stm32f4xx_hal_pcd.c ****     {
 684:Drivers/STM32F4xx_HAL_Driver/Src/stm32f4xx_hal_pcd.c ****       HAL_PCD_ISOINIncompleteCallback(hpcd, epnum);
 685:Drivers/STM32F4xx_HAL_Driver/Src/stm32f4xx_hal_pcd.c ****       __HAL_PCD_CLEAR_FLAG(hpcd, USB_OTG_GINTSTS_IISOIXFR);
 686:Drivers/STM32F4xx_HAL_Driver/Src/stm32f4xx_hal_pcd.c ****     } 
 687:Drivers/STM32F4xx_HAL_Driver/Src/stm32f4xx_hal_pcd.c ****     
 688:Drivers/STM32F4xx_HAL_Driver/Src/stm32f4xx_hal_pcd.c ****     /* Handle Incomplete ISO OUT Interrupt */
 689:Drivers/STM32F4xx_HAL_Driver/Src/stm32f4xx_hal_pcd.c ****     if(__HAL_PCD_GET_FLAG(hpcd, USB_OTG_GINTSTS_PXFR_INCOMPISOOUT))
 690:Drivers/STM32F4xx_HAL_Driver/Src/stm32f4xx_hal_pcd.c ****     {
 691:Drivers/STM32F4xx_HAL_Driver/Src/stm32f4xx_hal_pcd.c ****       HAL_PCD_ISOOUTIncompleteCallback(hpcd, epnum);
 692:Drivers/STM32F4xx_HAL_Driver/Src/stm32f4xx_hal_pcd.c ****       __HAL_PCD_CLEAR_FLAG(hpcd, USB_OTG_GINTSTS_PXFR_INCOMPISOOUT);
 693:Drivers/STM32F4xx_HAL_Driver/Src/stm32f4xx_hal_pcd.c ****     } 
 694:Drivers/STM32F4xx_HAL_Driver/Src/stm32f4xx_hal_pcd.c ****     
 695:Drivers/STM32F4xx_HAL_Driver/Src/stm32f4xx_hal_pcd.c ****     /* Handle Connection event Interrupt */
 696:Drivers/STM32F4xx_HAL_Driver/Src/stm32f4xx_hal_pcd.c ****     if(__HAL_PCD_GET_FLAG(hpcd, USB_OTG_GINTSTS_SRQINT))
 697:Drivers/STM32F4xx_HAL_Driver/Src/stm32f4xx_hal_pcd.c ****     {
 698:Drivers/STM32F4xx_HAL_Driver/Src/stm32f4xx_hal_pcd.c ****       HAL_PCD_ConnectCallback(hpcd);
 699:Drivers/STM32F4xx_HAL_Driver/Src/stm32f4xx_hal_pcd.c ****       __HAL_PCD_CLEAR_FLAG(hpcd, USB_OTG_GINTSTS_SRQINT);
 700:Drivers/STM32F4xx_HAL_Driver/Src/stm32f4xx_hal_pcd.c ****     } 
 701:Drivers/STM32F4xx_HAL_Driver/Src/stm32f4xx_hal_pcd.c ****     
 702:Drivers/STM32F4xx_HAL_Driver/Src/stm32f4xx_hal_pcd.c ****     /* Handle Disconnection event Interrupt */
 703:Drivers/STM32F4xx_HAL_Driver/Src/stm32f4xx_hal_pcd.c ****     if(__HAL_PCD_GET_FLAG(hpcd, USB_OTG_GINTSTS_OTGINT))
 704:Drivers/STM32F4xx_HAL_Driver/Src/stm32f4xx_hal_pcd.c ****     {
 705:Drivers/STM32F4xx_HAL_Driver/Src/stm32f4xx_hal_pcd.c ****       temp = hpcd->Instance->GOTGINT;
 706:Drivers/STM32F4xx_HAL_Driver/Src/stm32f4xx_hal_pcd.c ****       
 707:Drivers/STM32F4xx_HAL_Driver/Src/stm32f4xx_hal_pcd.c ****       if((temp & USB_OTG_GOTGINT_SEDET) == USB_OTG_GOTGINT_SEDET)
 708:Drivers/STM32F4xx_HAL_Driver/Src/stm32f4xx_hal_pcd.c ****       {
 709:Drivers/STM32F4xx_HAL_Driver/Src/stm32f4xx_hal_pcd.c ****         HAL_PCD_DisconnectCallback(hpcd);
 710:Drivers/STM32F4xx_HAL_Driver/Src/stm32f4xx_hal_pcd.c ****       }
 711:Drivers/STM32F4xx_HAL_Driver/Src/stm32f4xx_hal_pcd.c ****       hpcd->Instance->GOTGINT |= temp;
 712:Drivers/STM32F4xx_HAL_Driver/Src/stm32f4xx_hal_pcd.c ****     }
 713:Drivers/STM32F4xx_HAL_Driver/Src/stm32f4xx_hal_pcd.c ****   }
 714:Drivers/STM32F4xx_HAL_Driver/Src/stm32f4xx_hal_pcd.c **** }
 715:Drivers/STM32F4xx_HAL_Driver/Src/stm32f4xx_hal_pcd.c **** 
ARM GAS  /tmp/ccUYINNg.s 			page 14


 716:Drivers/STM32F4xx_HAL_Driver/Src/stm32f4xx_hal_pcd.c **** /**
 717:Drivers/STM32F4xx_HAL_Driver/Src/stm32f4xx_hal_pcd.c ****   * @brief  Data OUT stage callback.
 718:Drivers/STM32F4xx_HAL_Driver/Src/stm32f4xx_hal_pcd.c ****   * @param  hpcd PCD handle
 719:Drivers/STM32F4xx_HAL_Driver/Src/stm32f4xx_hal_pcd.c ****   * @param  epnum endpoint number  
 720:Drivers/STM32F4xx_HAL_Driver/Src/stm32f4xx_hal_pcd.c ****   * @retval None
 721:Drivers/STM32F4xx_HAL_Driver/Src/stm32f4xx_hal_pcd.c ****   */
 722:Drivers/STM32F4xx_HAL_Driver/Src/stm32f4xx_hal_pcd.c ****  __weak void HAL_PCD_DataOutStageCallback(PCD_HandleTypeDef *hpcd, uint8_t epnum)
 723:Drivers/STM32F4xx_HAL_Driver/Src/stm32f4xx_hal_pcd.c **** {
 724:Drivers/STM32F4xx_HAL_Driver/Src/stm32f4xx_hal_pcd.c ****   /* Prevent unused argument(s) compilation warning */
 725:Drivers/STM32F4xx_HAL_Driver/Src/stm32f4xx_hal_pcd.c ****   UNUSED(hpcd);
 726:Drivers/STM32F4xx_HAL_Driver/Src/stm32f4xx_hal_pcd.c ****   UNUSED(epnum);
 727:Drivers/STM32F4xx_HAL_Driver/Src/stm32f4xx_hal_pcd.c ****   /* NOTE : This function Should not be modified, when the callback is needed,
 728:Drivers/STM32F4xx_HAL_Driver/Src/stm32f4xx_hal_pcd.c ****             the HAL_PCD_DataOutStageCallback could be implemented in the user file
 729:Drivers/STM32F4xx_HAL_Driver/Src/stm32f4xx_hal_pcd.c ****    */ 
 730:Drivers/STM32F4xx_HAL_Driver/Src/stm32f4xx_hal_pcd.c **** }
 731:Drivers/STM32F4xx_HAL_Driver/Src/stm32f4xx_hal_pcd.c **** 
 732:Drivers/STM32F4xx_HAL_Driver/Src/stm32f4xx_hal_pcd.c **** /**
 733:Drivers/STM32F4xx_HAL_Driver/Src/stm32f4xx_hal_pcd.c ****   * @brief  Data IN stage callback.
 734:Drivers/STM32F4xx_HAL_Driver/Src/stm32f4xx_hal_pcd.c ****   * @param  hpcd PCD handle
 735:Drivers/STM32F4xx_HAL_Driver/Src/stm32f4xx_hal_pcd.c ****   * @param  epnum endpoint number
 736:Drivers/STM32F4xx_HAL_Driver/Src/stm32f4xx_hal_pcd.c ****   * @retval None
 737:Drivers/STM32F4xx_HAL_Driver/Src/stm32f4xx_hal_pcd.c ****   */
 738:Drivers/STM32F4xx_HAL_Driver/Src/stm32f4xx_hal_pcd.c ****  __weak void HAL_PCD_DataInStageCallback(PCD_HandleTypeDef *hpcd, uint8_t epnum)
 739:Drivers/STM32F4xx_HAL_Driver/Src/stm32f4xx_hal_pcd.c **** {
 740:Drivers/STM32F4xx_HAL_Driver/Src/stm32f4xx_hal_pcd.c ****   /* Prevent unused argument(s) compilation warning */
 741:Drivers/STM32F4xx_HAL_Driver/Src/stm32f4xx_hal_pcd.c ****   UNUSED(hpcd);
 742:Drivers/STM32F4xx_HAL_Driver/Src/stm32f4xx_hal_pcd.c ****   UNUSED(epnum);
 743:Drivers/STM32F4xx_HAL_Driver/Src/stm32f4xx_hal_pcd.c ****   /* NOTE : This function Should not be modified, when the callback is needed,
 744:Drivers/STM32F4xx_HAL_Driver/Src/stm32f4xx_hal_pcd.c ****             the HAL_PCD_DataInStageCallback could be implemented in the user file
 745:Drivers/STM32F4xx_HAL_Driver/Src/stm32f4xx_hal_pcd.c ****    */ 
 746:Drivers/STM32F4xx_HAL_Driver/Src/stm32f4xx_hal_pcd.c **** }
 747:Drivers/STM32F4xx_HAL_Driver/Src/stm32f4xx_hal_pcd.c **** /**
 748:Drivers/STM32F4xx_HAL_Driver/Src/stm32f4xx_hal_pcd.c ****   * @brief  Setup stage callback.
 749:Drivers/STM32F4xx_HAL_Driver/Src/stm32f4xx_hal_pcd.c ****   * @param  hpcd PCD handle
 750:Drivers/STM32F4xx_HAL_Driver/Src/stm32f4xx_hal_pcd.c ****   * @retval None
 751:Drivers/STM32F4xx_HAL_Driver/Src/stm32f4xx_hal_pcd.c ****   */
 752:Drivers/STM32F4xx_HAL_Driver/Src/stm32f4xx_hal_pcd.c ****  __weak void HAL_PCD_SetupStageCallback(PCD_HandleTypeDef *hpcd)
 753:Drivers/STM32F4xx_HAL_Driver/Src/stm32f4xx_hal_pcd.c **** {
 754:Drivers/STM32F4xx_HAL_Driver/Src/stm32f4xx_hal_pcd.c ****   /* Prevent unused argument(s) compilation warning */
 755:Drivers/STM32F4xx_HAL_Driver/Src/stm32f4xx_hal_pcd.c ****   UNUSED(hpcd);
 756:Drivers/STM32F4xx_HAL_Driver/Src/stm32f4xx_hal_pcd.c ****   /* NOTE : This function Should not be modified, when the callback is needed,
 757:Drivers/STM32F4xx_HAL_Driver/Src/stm32f4xx_hal_pcd.c ****             the HAL_PCD_SetupStageCallback could be implemented in the user file
 758:Drivers/STM32F4xx_HAL_Driver/Src/stm32f4xx_hal_pcd.c ****    */ 
 759:Drivers/STM32F4xx_HAL_Driver/Src/stm32f4xx_hal_pcd.c **** }
 760:Drivers/STM32F4xx_HAL_Driver/Src/stm32f4xx_hal_pcd.c **** 
 761:Drivers/STM32F4xx_HAL_Driver/Src/stm32f4xx_hal_pcd.c **** /**
 762:Drivers/STM32F4xx_HAL_Driver/Src/stm32f4xx_hal_pcd.c ****   * @brief  USB Start Of Frame callback.
 763:Drivers/STM32F4xx_HAL_Driver/Src/stm32f4xx_hal_pcd.c ****   * @param  hpcd PCD handle
 764:Drivers/STM32F4xx_HAL_Driver/Src/stm32f4xx_hal_pcd.c ****   * @retval None
 765:Drivers/STM32F4xx_HAL_Driver/Src/stm32f4xx_hal_pcd.c ****   */
 766:Drivers/STM32F4xx_HAL_Driver/Src/stm32f4xx_hal_pcd.c ****  __weak void HAL_PCD_SOFCallback(PCD_HandleTypeDef *hpcd)
 767:Drivers/STM32F4xx_HAL_Driver/Src/stm32f4xx_hal_pcd.c **** {
 768:Drivers/STM32F4xx_HAL_Driver/Src/stm32f4xx_hal_pcd.c ****   /* Prevent unused argument(s) compilation warning */
 769:Drivers/STM32F4xx_HAL_Driver/Src/stm32f4xx_hal_pcd.c ****   UNUSED(hpcd);
 770:Drivers/STM32F4xx_HAL_Driver/Src/stm32f4xx_hal_pcd.c ****   /* NOTE : This function Should not be modified, when the callback is needed,
 771:Drivers/STM32F4xx_HAL_Driver/Src/stm32f4xx_hal_pcd.c ****             the HAL_PCD_SOFCallback could be implemented in the user file
 772:Drivers/STM32F4xx_HAL_Driver/Src/stm32f4xx_hal_pcd.c ****    */ 
ARM GAS  /tmp/ccUYINNg.s 			page 15


 773:Drivers/STM32F4xx_HAL_Driver/Src/stm32f4xx_hal_pcd.c **** }
 774:Drivers/STM32F4xx_HAL_Driver/Src/stm32f4xx_hal_pcd.c **** 
 775:Drivers/STM32F4xx_HAL_Driver/Src/stm32f4xx_hal_pcd.c **** /**
 776:Drivers/STM32F4xx_HAL_Driver/Src/stm32f4xx_hal_pcd.c ****   * @brief  USB Reset callback.
 777:Drivers/STM32F4xx_HAL_Driver/Src/stm32f4xx_hal_pcd.c ****   * @param  hpcd PCD handle
 778:Drivers/STM32F4xx_HAL_Driver/Src/stm32f4xx_hal_pcd.c ****   * @retval None
 779:Drivers/STM32F4xx_HAL_Driver/Src/stm32f4xx_hal_pcd.c ****   */
 780:Drivers/STM32F4xx_HAL_Driver/Src/stm32f4xx_hal_pcd.c ****  __weak void HAL_PCD_ResetCallback(PCD_HandleTypeDef *hpcd)
 781:Drivers/STM32F4xx_HAL_Driver/Src/stm32f4xx_hal_pcd.c **** {
 782:Drivers/STM32F4xx_HAL_Driver/Src/stm32f4xx_hal_pcd.c ****   /* Prevent unused argument(s) compilation warning */
 783:Drivers/STM32F4xx_HAL_Driver/Src/stm32f4xx_hal_pcd.c ****   UNUSED(hpcd);
 784:Drivers/STM32F4xx_HAL_Driver/Src/stm32f4xx_hal_pcd.c ****   /* NOTE : This function Should not be modified, when the callback is needed,
 785:Drivers/STM32F4xx_HAL_Driver/Src/stm32f4xx_hal_pcd.c ****             the HAL_PCD_ResetCallback could be implemented in the user file
 786:Drivers/STM32F4xx_HAL_Driver/Src/stm32f4xx_hal_pcd.c ****    */ 
 787:Drivers/STM32F4xx_HAL_Driver/Src/stm32f4xx_hal_pcd.c **** }
 788:Drivers/STM32F4xx_HAL_Driver/Src/stm32f4xx_hal_pcd.c **** 
 789:Drivers/STM32F4xx_HAL_Driver/Src/stm32f4xx_hal_pcd.c **** /**
 790:Drivers/STM32F4xx_HAL_Driver/Src/stm32f4xx_hal_pcd.c ****   * @brief  Suspend event callback.
 791:Drivers/STM32F4xx_HAL_Driver/Src/stm32f4xx_hal_pcd.c ****   * @param  hpcd PCD handle
 792:Drivers/STM32F4xx_HAL_Driver/Src/stm32f4xx_hal_pcd.c ****   * @retval None
 793:Drivers/STM32F4xx_HAL_Driver/Src/stm32f4xx_hal_pcd.c ****   */
 794:Drivers/STM32F4xx_HAL_Driver/Src/stm32f4xx_hal_pcd.c ****  __weak void HAL_PCD_SuspendCallback(PCD_HandleTypeDef *hpcd)
 795:Drivers/STM32F4xx_HAL_Driver/Src/stm32f4xx_hal_pcd.c **** {
 796:Drivers/STM32F4xx_HAL_Driver/Src/stm32f4xx_hal_pcd.c ****   /* Prevent unused argument(s) compilation warning */
 797:Drivers/STM32F4xx_HAL_Driver/Src/stm32f4xx_hal_pcd.c ****   UNUSED(hpcd);
 798:Drivers/STM32F4xx_HAL_Driver/Src/stm32f4xx_hal_pcd.c ****   /* NOTE : This function Should not be modified, when the callback is needed,
 799:Drivers/STM32F4xx_HAL_Driver/Src/stm32f4xx_hal_pcd.c ****             the HAL_PCD_SuspendCallback could be implemented in the user file
 800:Drivers/STM32F4xx_HAL_Driver/Src/stm32f4xx_hal_pcd.c ****    */ 
 801:Drivers/STM32F4xx_HAL_Driver/Src/stm32f4xx_hal_pcd.c **** }
 802:Drivers/STM32F4xx_HAL_Driver/Src/stm32f4xx_hal_pcd.c **** 
 803:Drivers/STM32F4xx_HAL_Driver/Src/stm32f4xx_hal_pcd.c **** /**
 804:Drivers/STM32F4xx_HAL_Driver/Src/stm32f4xx_hal_pcd.c ****   * @brief  Resume event callback.
 805:Drivers/STM32F4xx_HAL_Driver/Src/stm32f4xx_hal_pcd.c ****   * @param  hpcd PCD handle
 806:Drivers/STM32F4xx_HAL_Driver/Src/stm32f4xx_hal_pcd.c ****   * @retval None
 807:Drivers/STM32F4xx_HAL_Driver/Src/stm32f4xx_hal_pcd.c ****   */
 808:Drivers/STM32F4xx_HAL_Driver/Src/stm32f4xx_hal_pcd.c ****  __weak void HAL_PCD_ResumeCallback(PCD_HandleTypeDef *hpcd)
 809:Drivers/STM32F4xx_HAL_Driver/Src/stm32f4xx_hal_pcd.c **** {
 810:Drivers/STM32F4xx_HAL_Driver/Src/stm32f4xx_hal_pcd.c ****   /* Prevent unused argument(s) compilation warning */
 811:Drivers/STM32F4xx_HAL_Driver/Src/stm32f4xx_hal_pcd.c ****   UNUSED(hpcd);
 812:Drivers/STM32F4xx_HAL_Driver/Src/stm32f4xx_hal_pcd.c ****   /* NOTE : This function Should not be modified, when the callback is needed,
 813:Drivers/STM32F4xx_HAL_Driver/Src/stm32f4xx_hal_pcd.c ****             the HAL_PCD_ResumeCallback could be implemented in the user file
 814:Drivers/STM32F4xx_HAL_Driver/Src/stm32f4xx_hal_pcd.c ****    */ 
 815:Drivers/STM32F4xx_HAL_Driver/Src/stm32f4xx_hal_pcd.c **** }
 816:Drivers/STM32F4xx_HAL_Driver/Src/stm32f4xx_hal_pcd.c **** 
 817:Drivers/STM32F4xx_HAL_Driver/Src/stm32f4xx_hal_pcd.c **** /**
 818:Drivers/STM32F4xx_HAL_Driver/Src/stm32f4xx_hal_pcd.c ****   * @brief  Incomplete ISO OUT callback.
 819:Drivers/STM32F4xx_HAL_Driver/Src/stm32f4xx_hal_pcd.c ****   * @param  hpcd PCD handle
 820:Drivers/STM32F4xx_HAL_Driver/Src/stm32f4xx_hal_pcd.c ****   * @param  epnum endpoint number
 821:Drivers/STM32F4xx_HAL_Driver/Src/stm32f4xx_hal_pcd.c ****   * @retval None
 822:Drivers/STM32F4xx_HAL_Driver/Src/stm32f4xx_hal_pcd.c ****   */
 823:Drivers/STM32F4xx_HAL_Driver/Src/stm32f4xx_hal_pcd.c ****  __weak void HAL_PCD_ISOOUTIncompleteCallback(PCD_HandleTypeDef *hpcd, uint8_t epnum)
 824:Drivers/STM32F4xx_HAL_Driver/Src/stm32f4xx_hal_pcd.c **** {
 825:Drivers/STM32F4xx_HAL_Driver/Src/stm32f4xx_hal_pcd.c ****   /* Prevent unused argument(s) compilation warning */
 826:Drivers/STM32F4xx_HAL_Driver/Src/stm32f4xx_hal_pcd.c ****   UNUSED(hpcd);
 827:Drivers/STM32F4xx_HAL_Driver/Src/stm32f4xx_hal_pcd.c ****   UNUSED(epnum);
 828:Drivers/STM32F4xx_HAL_Driver/Src/stm32f4xx_hal_pcd.c ****   /* NOTE : This function Should not be modified, when the callback is needed,
 829:Drivers/STM32F4xx_HAL_Driver/Src/stm32f4xx_hal_pcd.c ****             the HAL_PCD_ISOOUTIncompleteCallback could be implemented in the user file
ARM GAS  /tmp/ccUYINNg.s 			page 16


 830:Drivers/STM32F4xx_HAL_Driver/Src/stm32f4xx_hal_pcd.c ****    */ 
 831:Drivers/STM32F4xx_HAL_Driver/Src/stm32f4xx_hal_pcd.c **** }
 832:Drivers/STM32F4xx_HAL_Driver/Src/stm32f4xx_hal_pcd.c **** 
 833:Drivers/STM32F4xx_HAL_Driver/Src/stm32f4xx_hal_pcd.c **** /**
 834:Drivers/STM32F4xx_HAL_Driver/Src/stm32f4xx_hal_pcd.c ****   * @brief  Incomplete ISO IN callback.
 835:Drivers/STM32F4xx_HAL_Driver/Src/stm32f4xx_hal_pcd.c ****   * @param  hpcd PCD handle
 836:Drivers/STM32F4xx_HAL_Driver/Src/stm32f4xx_hal_pcd.c ****   * @param  epnum endpoint number  
 837:Drivers/STM32F4xx_HAL_Driver/Src/stm32f4xx_hal_pcd.c ****   * @retval None
 838:Drivers/STM32F4xx_HAL_Driver/Src/stm32f4xx_hal_pcd.c ****   */
 839:Drivers/STM32F4xx_HAL_Driver/Src/stm32f4xx_hal_pcd.c ****  __weak void HAL_PCD_ISOINIncompleteCallback(PCD_HandleTypeDef *hpcd, uint8_t epnum)
 840:Drivers/STM32F4xx_HAL_Driver/Src/stm32f4xx_hal_pcd.c **** {
 841:Drivers/STM32F4xx_HAL_Driver/Src/stm32f4xx_hal_pcd.c ****   /* Prevent unused argument(s) compilation warning */
 842:Drivers/STM32F4xx_HAL_Driver/Src/stm32f4xx_hal_pcd.c ****   UNUSED(hpcd);
 843:Drivers/STM32F4xx_HAL_Driver/Src/stm32f4xx_hal_pcd.c ****   UNUSED(epnum);
 844:Drivers/STM32F4xx_HAL_Driver/Src/stm32f4xx_hal_pcd.c ****   /* NOTE : This function Should not be modified, when the callback is needed,
 845:Drivers/STM32F4xx_HAL_Driver/Src/stm32f4xx_hal_pcd.c ****             the HAL_PCD_ISOINIncompleteCallback could be implemented in the user file
 846:Drivers/STM32F4xx_HAL_Driver/Src/stm32f4xx_hal_pcd.c ****    */ 
 847:Drivers/STM32F4xx_HAL_Driver/Src/stm32f4xx_hal_pcd.c **** }
 848:Drivers/STM32F4xx_HAL_Driver/Src/stm32f4xx_hal_pcd.c **** 
 849:Drivers/STM32F4xx_HAL_Driver/Src/stm32f4xx_hal_pcd.c **** /**
 850:Drivers/STM32F4xx_HAL_Driver/Src/stm32f4xx_hal_pcd.c ****   * @brief  Connection event callback.
 851:Drivers/STM32F4xx_HAL_Driver/Src/stm32f4xx_hal_pcd.c ****   * @param  hpcd PCD handle
 852:Drivers/STM32F4xx_HAL_Driver/Src/stm32f4xx_hal_pcd.c ****   * @retval None
 853:Drivers/STM32F4xx_HAL_Driver/Src/stm32f4xx_hal_pcd.c ****   */
 854:Drivers/STM32F4xx_HAL_Driver/Src/stm32f4xx_hal_pcd.c ****  __weak void HAL_PCD_ConnectCallback(PCD_HandleTypeDef *hpcd)
 855:Drivers/STM32F4xx_HAL_Driver/Src/stm32f4xx_hal_pcd.c **** {
 856:Drivers/STM32F4xx_HAL_Driver/Src/stm32f4xx_hal_pcd.c ****   /* Prevent unused argument(s) compilation warning */
 857:Drivers/STM32F4xx_HAL_Driver/Src/stm32f4xx_hal_pcd.c ****   UNUSED(hpcd);
 858:Drivers/STM32F4xx_HAL_Driver/Src/stm32f4xx_hal_pcd.c ****   /* NOTE : This function Should not be modified, when the callback is needed,
 859:Drivers/STM32F4xx_HAL_Driver/Src/stm32f4xx_hal_pcd.c ****             the HAL_PCD_ConnectCallback could be implemented in the user file
 860:Drivers/STM32F4xx_HAL_Driver/Src/stm32f4xx_hal_pcd.c ****    */ 
 861:Drivers/STM32F4xx_HAL_Driver/Src/stm32f4xx_hal_pcd.c **** }
 862:Drivers/STM32F4xx_HAL_Driver/Src/stm32f4xx_hal_pcd.c **** 
 863:Drivers/STM32F4xx_HAL_Driver/Src/stm32f4xx_hal_pcd.c **** /**
 864:Drivers/STM32F4xx_HAL_Driver/Src/stm32f4xx_hal_pcd.c ****   * @brief  Disconnection event callback.
 865:Drivers/STM32F4xx_HAL_Driver/Src/stm32f4xx_hal_pcd.c ****   * @param  hpcd PCD handle
 866:Drivers/STM32F4xx_HAL_Driver/Src/stm32f4xx_hal_pcd.c ****   * @retval None
 867:Drivers/STM32F4xx_HAL_Driver/Src/stm32f4xx_hal_pcd.c ****   */
 868:Drivers/STM32F4xx_HAL_Driver/Src/stm32f4xx_hal_pcd.c ****  __weak void HAL_PCD_DisconnectCallback(PCD_HandleTypeDef *hpcd)
 869:Drivers/STM32F4xx_HAL_Driver/Src/stm32f4xx_hal_pcd.c **** {
 870:Drivers/STM32F4xx_HAL_Driver/Src/stm32f4xx_hal_pcd.c ****   /* Prevent unused argument(s) compilation warning */
 871:Drivers/STM32F4xx_HAL_Driver/Src/stm32f4xx_hal_pcd.c ****   UNUSED(hpcd);
 872:Drivers/STM32F4xx_HAL_Driver/Src/stm32f4xx_hal_pcd.c ****   /* NOTE : This function Should not be modified, when the callback is needed,
 873:Drivers/STM32F4xx_HAL_Driver/Src/stm32f4xx_hal_pcd.c ****             the HAL_PCD_DisconnectCallback could be implemented in the user file
 874:Drivers/STM32F4xx_HAL_Driver/Src/stm32f4xx_hal_pcd.c ****    */ 
 875:Drivers/STM32F4xx_HAL_Driver/Src/stm32f4xx_hal_pcd.c **** }
 876:Drivers/STM32F4xx_HAL_Driver/Src/stm32f4xx_hal_pcd.c **** 
 877:Drivers/STM32F4xx_HAL_Driver/Src/stm32f4xx_hal_pcd.c **** /**
 878:Drivers/STM32F4xx_HAL_Driver/Src/stm32f4xx_hal_pcd.c ****   * @}
 879:Drivers/STM32F4xx_HAL_Driver/Src/stm32f4xx_hal_pcd.c ****   */
 880:Drivers/STM32F4xx_HAL_Driver/Src/stm32f4xx_hal_pcd.c **** 
 881:Drivers/STM32F4xx_HAL_Driver/Src/stm32f4xx_hal_pcd.c **** /** @defgroup PCD_Exported_Functions_Group3 Peripheral Control functions
 882:Drivers/STM32F4xx_HAL_Driver/Src/stm32f4xx_hal_pcd.c ****  *  @brief   management functions
 883:Drivers/STM32F4xx_HAL_Driver/Src/stm32f4xx_hal_pcd.c ****  *
 884:Drivers/STM32F4xx_HAL_Driver/Src/stm32f4xx_hal_pcd.c **** @verbatim 
 885:Drivers/STM32F4xx_HAL_Driver/Src/stm32f4xx_hal_pcd.c ****  ===============================================================================
 886:Drivers/STM32F4xx_HAL_Driver/Src/stm32f4xx_hal_pcd.c ****                       ##### Peripheral Control functions #####
ARM GAS  /tmp/ccUYINNg.s 			page 17


 887:Drivers/STM32F4xx_HAL_Driver/Src/stm32f4xx_hal_pcd.c ****  ===============================================================================  
 888:Drivers/STM32F4xx_HAL_Driver/Src/stm32f4xx_hal_pcd.c ****     [..]
 889:Drivers/STM32F4xx_HAL_Driver/Src/stm32f4xx_hal_pcd.c ****     This subsection provides a set of functions allowing to control the PCD data 
 890:Drivers/STM32F4xx_HAL_Driver/Src/stm32f4xx_hal_pcd.c ****     transfers.
 891:Drivers/STM32F4xx_HAL_Driver/Src/stm32f4xx_hal_pcd.c **** 
 892:Drivers/STM32F4xx_HAL_Driver/Src/stm32f4xx_hal_pcd.c **** @endverbatim
 893:Drivers/STM32F4xx_HAL_Driver/Src/stm32f4xx_hal_pcd.c ****   * @{
 894:Drivers/STM32F4xx_HAL_Driver/Src/stm32f4xx_hal_pcd.c ****   */
 895:Drivers/STM32F4xx_HAL_Driver/Src/stm32f4xx_hal_pcd.c **** 
 896:Drivers/STM32F4xx_HAL_Driver/Src/stm32f4xx_hal_pcd.c **** /**
 897:Drivers/STM32F4xx_HAL_Driver/Src/stm32f4xx_hal_pcd.c ****   * @brief  Connect the USB device.
 898:Drivers/STM32F4xx_HAL_Driver/Src/stm32f4xx_hal_pcd.c ****   * @param  hpcd PCD handle
 899:Drivers/STM32F4xx_HAL_Driver/Src/stm32f4xx_hal_pcd.c ****   * @retval HAL status
 900:Drivers/STM32F4xx_HAL_Driver/Src/stm32f4xx_hal_pcd.c ****   */
 901:Drivers/STM32F4xx_HAL_Driver/Src/stm32f4xx_hal_pcd.c **** HAL_StatusTypeDef HAL_PCD_DevConnect(PCD_HandleTypeDef *hpcd)
 902:Drivers/STM32F4xx_HAL_Driver/Src/stm32f4xx_hal_pcd.c **** {
 903:Drivers/STM32F4xx_HAL_Driver/Src/stm32f4xx_hal_pcd.c ****   __HAL_LOCK(hpcd); 
 904:Drivers/STM32F4xx_HAL_Driver/Src/stm32f4xx_hal_pcd.c ****   USB_DevConnect(hpcd->Instance);
 905:Drivers/STM32F4xx_HAL_Driver/Src/stm32f4xx_hal_pcd.c ****   __HAL_UNLOCK(hpcd); 
 906:Drivers/STM32F4xx_HAL_Driver/Src/stm32f4xx_hal_pcd.c ****   return HAL_OK;
 907:Drivers/STM32F4xx_HAL_Driver/Src/stm32f4xx_hal_pcd.c **** }
 908:Drivers/STM32F4xx_HAL_Driver/Src/stm32f4xx_hal_pcd.c **** 
 909:Drivers/STM32F4xx_HAL_Driver/Src/stm32f4xx_hal_pcd.c **** /**
 910:Drivers/STM32F4xx_HAL_Driver/Src/stm32f4xx_hal_pcd.c ****   * @brief  Disconnect the USB device.
 911:Drivers/STM32F4xx_HAL_Driver/Src/stm32f4xx_hal_pcd.c ****   * @param  hpcd PCD handle
 912:Drivers/STM32F4xx_HAL_Driver/Src/stm32f4xx_hal_pcd.c ****   * @retval HAL status
 913:Drivers/STM32F4xx_HAL_Driver/Src/stm32f4xx_hal_pcd.c ****   */
 914:Drivers/STM32F4xx_HAL_Driver/Src/stm32f4xx_hal_pcd.c **** HAL_StatusTypeDef HAL_PCD_DevDisconnect(PCD_HandleTypeDef *hpcd)
 915:Drivers/STM32F4xx_HAL_Driver/Src/stm32f4xx_hal_pcd.c **** {
 916:Drivers/STM32F4xx_HAL_Driver/Src/stm32f4xx_hal_pcd.c ****   __HAL_LOCK(hpcd); 
 917:Drivers/STM32F4xx_HAL_Driver/Src/stm32f4xx_hal_pcd.c ****   USB_DevDisconnect(hpcd->Instance);
 918:Drivers/STM32F4xx_HAL_Driver/Src/stm32f4xx_hal_pcd.c ****   __HAL_UNLOCK(hpcd); 
 919:Drivers/STM32F4xx_HAL_Driver/Src/stm32f4xx_hal_pcd.c ****   return HAL_OK;
 920:Drivers/STM32F4xx_HAL_Driver/Src/stm32f4xx_hal_pcd.c **** }
 921:Drivers/STM32F4xx_HAL_Driver/Src/stm32f4xx_hal_pcd.c **** 
 922:Drivers/STM32F4xx_HAL_Driver/Src/stm32f4xx_hal_pcd.c **** /**
 923:Drivers/STM32F4xx_HAL_Driver/Src/stm32f4xx_hal_pcd.c ****   * @brief  Set the USB Device address. 
 924:Drivers/STM32F4xx_HAL_Driver/Src/stm32f4xx_hal_pcd.c ****   * @param  hpcd PCD handle
 925:Drivers/STM32F4xx_HAL_Driver/Src/stm32f4xx_hal_pcd.c ****   * @param  address new device address
 926:Drivers/STM32F4xx_HAL_Driver/Src/stm32f4xx_hal_pcd.c ****   * @retval HAL status
 927:Drivers/STM32F4xx_HAL_Driver/Src/stm32f4xx_hal_pcd.c ****   */
 928:Drivers/STM32F4xx_HAL_Driver/Src/stm32f4xx_hal_pcd.c **** HAL_StatusTypeDef HAL_PCD_SetAddress(PCD_HandleTypeDef *hpcd, uint8_t address)
 929:Drivers/STM32F4xx_HAL_Driver/Src/stm32f4xx_hal_pcd.c **** {
 930:Drivers/STM32F4xx_HAL_Driver/Src/stm32f4xx_hal_pcd.c ****   __HAL_LOCK(hpcd); 
 931:Drivers/STM32F4xx_HAL_Driver/Src/stm32f4xx_hal_pcd.c ****   USB_SetDevAddress(hpcd->Instance, address);
 932:Drivers/STM32F4xx_HAL_Driver/Src/stm32f4xx_hal_pcd.c ****   __HAL_UNLOCK(hpcd);   
 933:Drivers/STM32F4xx_HAL_Driver/Src/stm32f4xx_hal_pcd.c ****   return HAL_OK;
 934:Drivers/STM32F4xx_HAL_Driver/Src/stm32f4xx_hal_pcd.c **** }
 935:Drivers/STM32F4xx_HAL_Driver/Src/stm32f4xx_hal_pcd.c **** /**
 936:Drivers/STM32F4xx_HAL_Driver/Src/stm32f4xx_hal_pcd.c ****   * @brief  Open and configure an endpoint.
 937:Drivers/STM32F4xx_HAL_Driver/Src/stm32f4xx_hal_pcd.c ****   * @param  hpcd PCD handle
 938:Drivers/STM32F4xx_HAL_Driver/Src/stm32f4xx_hal_pcd.c ****   * @param  ep_addr endpoint address
 939:Drivers/STM32F4xx_HAL_Driver/Src/stm32f4xx_hal_pcd.c ****   * @param  ep_mps endpoint max packet size
 940:Drivers/STM32F4xx_HAL_Driver/Src/stm32f4xx_hal_pcd.c ****   * @param  ep_type endpoint type   
 941:Drivers/STM32F4xx_HAL_Driver/Src/stm32f4xx_hal_pcd.c ****   * @retval HAL status
 942:Drivers/STM32F4xx_HAL_Driver/Src/stm32f4xx_hal_pcd.c ****   */
 943:Drivers/STM32F4xx_HAL_Driver/Src/stm32f4xx_hal_pcd.c **** HAL_StatusTypeDef HAL_PCD_EP_Open(PCD_HandleTypeDef *hpcd, uint8_t ep_addr, uint16_t ep_mps, uint8_
ARM GAS  /tmp/ccUYINNg.s 			page 18


 944:Drivers/STM32F4xx_HAL_Driver/Src/stm32f4xx_hal_pcd.c **** {
 945:Drivers/STM32F4xx_HAL_Driver/Src/stm32f4xx_hal_pcd.c ****   HAL_StatusTypeDef  ret = HAL_OK;
 946:Drivers/STM32F4xx_HAL_Driver/Src/stm32f4xx_hal_pcd.c ****   USB_OTG_EPTypeDef *ep;
 947:Drivers/STM32F4xx_HAL_Driver/Src/stm32f4xx_hal_pcd.c ****   
 948:Drivers/STM32F4xx_HAL_Driver/Src/stm32f4xx_hal_pcd.c ****   if ((ep_addr & 0x80) == 0x80)
 949:Drivers/STM32F4xx_HAL_Driver/Src/stm32f4xx_hal_pcd.c ****   {
 950:Drivers/STM32F4xx_HAL_Driver/Src/stm32f4xx_hal_pcd.c ****     ep = &hpcd->IN_ep[ep_addr & 0x7F];
 951:Drivers/STM32F4xx_HAL_Driver/Src/stm32f4xx_hal_pcd.c ****   }
 952:Drivers/STM32F4xx_HAL_Driver/Src/stm32f4xx_hal_pcd.c ****   else
 953:Drivers/STM32F4xx_HAL_Driver/Src/stm32f4xx_hal_pcd.c ****   {
 954:Drivers/STM32F4xx_HAL_Driver/Src/stm32f4xx_hal_pcd.c ****     ep = &hpcd->OUT_ep[ep_addr & 0x7F];
 955:Drivers/STM32F4xx_HAL_Driver/Src/stm32f4xx_hal_pcd.c ****   }
 956:Drivers/STM32F4xx_HAL_Driver/Src/stm32f4xx_hal_pcd.c ****   ep->num   = ep_addr & 0x7F;
 957:Drivers/STM32F4xx_HAL_Driver/Src/stm32f4xx_hal_pcd.c ****   
 958:Drivers/STM32F4xx_HAL_Driver/Src/stm32f4xx_hal_pcd.c ****   ep->is_in = (0x80 & ep_addr) != 0;
 959:Drivers/STM32F4xx_HAL_Driver/Src/stm32f4xx_hal_pcd.c ****   ep->maxpacket = ep_mps;
 960:Drivers/STM32F4xx_HAL_Driver/Src/stm32f4xx_hal_pcd.c ****   ep->type = ep_type;
 961:Drivers/STM32F4xx_HAL_Driver/Src/stm32f4xx_hal_pcd.c ****   if (ep->is_in)
 962:Drivers/STM32F4xx_HAL_Driver/Src/stm32f4xx_hal_pcd.c ****   {
 963:Drivers/STM32F4xx_HAL_Driver/Src/stm32f4xx_hal_pcd.c ****     /* Assign a Tx FIFO */
 964:Drivers/STM32F4xx_HAL_Driver/Src/stm32f4xx_hal_pcd.c ****     ep->tx_fifo_num = ep->num;
 965:Drivers/STM32F4xx_HAL_Driver/Src/stm32f4xx_hal_pcd.c ****   }
 966:Drivers/STM32F4xx_HAL_Driver/Src/stm32f4xx_hal_pcd.c ****   /* Set initial data PID. */
 967:Drivers/STM32F4xx_HAL_Driver/Src/stm32f4xx_hal_pcd.c ****   if (ep_type == EP_TYPE_BULK )
 968:Drivers/STM32F4xx_HAL_Driver/Src/stm32f4xx_hal_pcd.c ****   {
 969:Drivers/STM32F4xx_HAL_Driver/Src/stm32f4xx_hal_pcd.c ****     ep->data_pid_start = 0U;
 970:Drivers/STM32F4xx_HAL_Driver/Src/stm32f4xx_hal_pcd.c ****   }
 971:Drivers/STM32F4xx_HAL_Driver/Src/stm32f4xx_hal_pcd.c ****   
 972:Drivers/STM32F4xx_HAL_Driver/Src/stm32f4xx_hal_pcd.c ****   __HAL_LOCK(hpcd); 
 973:Drivers/STM32F4xx_HAL_Driver/Src/stm32f4xx_hal_pcd.c ****   USB_ActivateEndpoint(hpcd->Instance , ep);
 974:Drivers/STM32F4xx_HAL_Driver/Src/stm32f4xx_hal_pcd.c ****   __HAL_UNLOCK(hpcd);   
 975:Drivers/STM32F4xx_HAL_Driver/Src/stm32f4xx_hal_pcd.c ****   return ret;
 976:Drivers/STM32F4xx_HAL_Driver/Src/stm32f4xx_hal_pcd.c **** }
 977:Drivers/STM32F4xx_HAL_Driver/Src/stm32f4xx_hal_pcd.c **** 
 978:Drivers/STM32F4xx_HAL_Driver/Src/stm32f4xx_hal_pcd.c **** 
 979:Drivers/STM32F4xx_HAL_Driver/Src/stm32f4xx_hal_pcd.c **** /**
 980:Drivers/STM32F4xx_HAL_Driver/Src/stm32f4xx_hal_pcd.c ****   * @brief  Deactivate an endpoint.
 981:Drivers/STM32F4xx_HAL_Driver/Src/stm32f4xx_hal_pcd.c ****   * @param  hpcd PCD handle
 982:Drivers/STM32F4xx_HAL_Driver/Src/stm32f4xx_hal_pcd.c ****   * @param  ep_addr endpoint address
 983:Drivers/STM32F4xx_HAL_Driver/Src/stm32f4xx_hal_pcd.c ****   * @retval HAL status
 984:Drivers/STM32F4xx_HAL_Driver/Src/stm32f4xx_hal_pcd.c ****   */
 985:Drivers/STM32F4xx_HAL_Driver/Src/stm32f4xx_hal_pcd.c **** HAL_StatusTypeDef HAL_PCD_EP_Close(PCD_HandleTypeDef *hpcd, uint8_t ep_addr)
 986:Drivers/STM32F4xx_HAL_Driver/Src/stm32f4xx_hal_pcd.c **** {  
 987:Drivers/STM32F4xx_HAL_Driver/Src/stm32f4xx_hal_pcd.c ****   USB_OTG_EPTypeDef *ep;
 988:Drivers/STM32F4xx_HAL_Driver/Src/stm32f4xx_hal_pcd.c ****   
 989:Drivers/STM32F4xx_HAL_Driver/Src/stm32f4xx_hal_pcd.c ****   if ((ep_addr & 0x80) == 0x80)
 990:Drivers/STM32F4xx_HAL_Driver/Src/stm32f4xx_hal_pcd.c ****   {
 991:Drivers/STM32F4xx_HAL_Driver/Src/stm32f4xx_hal_pcd.c ****     ep = &hpcd->IN_ep[ep_addr & 0x7F];
 992:Drivers/STM32F4xx_HAL_Driver/Src/stm32f4xx_hal_pcd.c ****   }
 993:Drivers/STM32F4xx_HAL_Driver/Src/stm32f4xx_hal_pcd.c ****   else
 994:Drivers/STM32F4xx_HAL_Driver/Src/stm32f4xx_hal_pcd.c ****   {
 995:Drivers/STM32F4xx_HAL_Driver/Src/stm32f4xx_hal_pcd.c ****     ep = &hpcd->OUT_ep[ep_addr & 0x7F];
 996:Drivers/STM32F4xx_HAL_Driver/Src/stm32f4xx_hal_pcd.c ****   }
 997:Drivers/STM32F4xx_HAL_Driver/Src/stm32f4xx_hal_pcd.c ****   ep->num   = ep_addr & 0x7F;
 998:Drivers/STM32F4xx_HAL_Driver/Src/stm32f4xx_hal_pcd.c ****   
 999:Drivers/STM32F4xx_HAL_Driver/Src/stm32f4xx_hal_pcd.c ****   ep->is_in = (0x80 & ep_addr) != 0;
1000:Drivers/STM32F4xx_HAL_Driver/Src/stm32f4xx_hal_pcd.c ****   
ARM GAS  /tmp/ccUYINNg.s 			page 19


1001:Drivers/STM32F4xx_HAL_Driver/Src/stm32f4xx_hal_pcd.c ****   __HAL_LOCK(hpcd); 
1002:Drivers/STM32F4xx_HAL_Driver/Src/stm32f4xx_hal_pcd.c ****   USB_DeactivateEndpoint(hpcd->Instance , ep);
1003:Drivers/STM32F4xx_HAL_Driver/Src/stm32f4xx_hal_pcd.c ****   __HAL_UNLOCK(hpcd);   
1004:Drivers/STM32F4xx_HAL_Driver/Src/stm32f4xx_hal_pcd.c ****   return HAL_OK;
1005:Drivers/STM32F4xx_HAL_Driver/Src/stm32f4xx_hal_pcd.c **** }
1006:Drivers/STM32F4xx_HAL_Driver/Src/stm32f4xx_hal_pcd.c **** 
1007:Drivers/STM32F4xx_HAL_Driver/Src/stm32f4xx_hal_pcd.c **** 
1008:Drivers/STM32F4xx_HAL_Driver/Src/stm32f4xx_hal_pcd.c **** /**
1009:Drivers/STM32F4xx_HAL_Driver/Src/stm32f4xx_hal_pcd.c ****   * @brief  Receive an amount of data.  
1010:Drivers/STM32F4xx_HAL_Driver/Src/stm32f4xx_hal_pcd.c ****   * @param  hpcd PCD handle
1011:Drivers/STM32F4xx_HAL_Driver/Src/stm32f4xx_hal_pcd.c ****   * @param  ep_addr endpoint address
1012:Drivers/STM32F4xx_HAL_Driver/Src/stm32f4xx_hal_pcd.c ****   * @param  pBuf pointer to the reception buffer   
1013:Drivers/STM32F4xx_HAL_Driver/Src/stm32f4xx_hal_pcd.c ****   * @param  len amount of data to be received
1014:Drivers/STM32F4xx_HAL_Driver/Src/stm32f4xx_hal_pcd.c ****   * @retval HAL status
1015:Drivers/STM32F4xx_HAL_Driver/Src/stm32f4xx_hal_pcd.c ****   */
1016:Drivers/STM32F4xx_HAL_Driver/Src/stm32f4xx_hal_pcd.c **** HAL_StatusTypeDef HAL_PCD_EP_Receive(PCD_HandleTypeDef *hpcd, uint8_t ep_addr, uint8_t *pBuf, uint3
1017:Drivers/STM32F4xx_HAL_Driver/Src/stm32f4xx_hal_pcd.c **** {
1018:Drivers/STM32F4xx_HAL_Driver/Src/stm32f4xx_hal_pcd.c ****   USB_OTG_EPTypeDef *ep;
1019:Drivers/STM32F4xx_HAL_Driver/Src/stm32f4xx_hal_pcd.c ****   
1020:Drivers/STM32F4xx_HAL_Driver/Src/stm32f4xx_hal_pcd.c ****   ep = &hpcd->OUT_ep[ep_addr & 0x7F];
1021:Drivers/STM32F4xx_HAL_Driver/Src/stm32f4xx_hal_pcd.c ****   
1022:Drivers/STM32F4xx_HAL_Driver/Src/stm32f4xx_hal_pcd.c ****   /*setup and start the Xfer */
1023:Drivers/STM32F4xx_HAL_Driver/Src/stm32f4xx_hal_pcd.c ****   ep->xfer_buff = pBuf;  
1024:Drivers/STM32F4xx_HAL_Driver/Src/stm32f4xx_hal_pcd.c ****   ep->xfer_len = len;
1025:Drivers/STM32F4xx_HAL_Driver/Src/stm32f4xx_hal_pcd.c ****   ep->xfer_count = 0U;
1026:Drivers/STM32F4xx_HAL_Driver/Src/stm32f4xx_hal_pcd.c ****   ep->is_in = 0U;
1027:Drivers/STM32F4xx_HAL_Driver/Src/stm32f4xx_hal_pcd.c ****   ep->num = ep_addr & 0x7F;
1028:Drivers/STM32F4xx_HAL_Driver/Src/stm32f4xx_hal_pcd.c ****   
1029:Drivers/STM32F4xx_HAL_Driver/Src/stm32f4xx_hal_pcd.c ****   if (hpcd->Init.dma_enable == 1U)
1030:Drivers/STM32F4xx_HAL_Driver/Src/stm32f4xx_hal_pcd.c ****   {
1031:Drivers/STM32F4xx_HAL_Driver/Src/stm32f4xx_hal_pcd.c ****     ep->dma_addr = (uint32_t)pBuf;  
1032:Drivers/STM32F4xx_HAL_Driver/Src/stm32f4xx_hal_pcd.c ****   }
1033:Drivers/STM32F4xx_HAL_Driver/Src/stm32f4xx_hal_pcd.c ****   
1034:Drivers/STM32F4xx_HAL_Driver/Src/stm32f4xx_hal_pcd.c ****   if ((ep_addr & 0x7F) == 0)
1035:Drivers/STM32F4xx_HAL_Driver/Src/stm32f4xx_hal_pcd.c ****   {
1036:Drivers/STM32F4xx_HAL_Driver/Src/stm32f4xx_hal_pcd.c ****     USB_EP0StartXfer(hpcd->Instance , ep, hpcd->Init.dma_enable);
1037:Drivers/STM32F4xx_HAL_Driver/Src/stm32f4xx_hal_pcd.c ****   }
1038:Drivers/STM32F4xx_HAL_Driver/Src/stm32f4xx_hal_pcd.c ****   else
1039:Drivers/STM32F4xx_HAL_Driver/Src/stm32f4xx_hal_pcd.c ****   {
1040:Drivers/STM32F4xx_HAL_Driver/Src/stm32f4xx_hal_pcd.c ****     USB_EPStartXfer(hpcd->Instance , ep, hpcd->Init.dma_enable);
1041:Drivers/STM32F4xx_HAL_Driver/Src/stm32f4xx_hal_pcd.c ****   }
1042:Drivers/STM32F4xx_HAL_Driver/Src/stm32f4xx_hal_pcd.c ****   
1043:Drivers/STM32F4xx_HAL_Driver/Src/stm32f4xx_hal_pcd.c ****   return HAL_OK;
1044:Drivers/STM32F4xx_HAL_Driver/Src/stm32f4xx_hal_pcd.c **** }
1045:Drivers/STM32F4xx_HAL_Driver/Src/stm32f4xx_hal_pcd.c **** 
1046:Drivers/STM32F4xx_HAL_Driver/Src/stm32f4xx_hal_pcd.c **** /**
1047:Drivers/STM32F4xx_HAL_Driver/Src/stm32f4xx_hal_pcd.c ****   * @brief  Get Received Data Size.
1048:Drivers/STM32F4xx_HAL_Driver/Src/stm32f4xx_hal_pcd.c ****   * @param  hpcd PCD handle
1049:Drivers/STM32F4xx_HAL_Driver/Src/stm32f4xx_hal_pcd.c ****   * @param  ep_addr endpoint address
1050:Drivers/STM32F4xx_HAL_Driver/Src/stm32f4xx_hal_pcd.c ****   * @retval Data Size
1051:Drivers/STM32F4xx_HAL_Driver/Src/stm32f4xx_hal_pcd.c ****   */
1052:Drivers/STM32F4xx_HAL_Driver/Src/stm32f4xx_hal_pcd.c **** uint16_t HAL_PCD_EP_GetRxCount(PCD_HandleTypeDef *hpcd, uint8_t ep_addr)
1053:Drivers/STM32F4xx_HAL_Driver/Src/stm32f4xx_hal_pcd.c **** {
1054:Drivers/STM32F4xx_HAL_Driver/Src/stm32f4xx_hal_pcd.c ****   return hpcd->OUT_ep[ep_addr & 0xF].xfer_count;
1055:Drivers/STM32F4xx_HAL_Driver/Src/stm32f4xx_hal_pcd.c **** }
1056:Drivers/STM32F4xx_HAL_Driver/Src/stm32f4xx_hal_pcd.c **** /**
1057:Drivers/STM32F4xx_HAL_Driver/Src/stm32f4xx_hal_pcd.c ****   * @brief  Send an amount of data.  
ARM GAS  /tmp/ccUYINNg.s 			page 20


1058:Drivers/STM32F4xx_HAL_Driver/Src/stm32f4xx_hal_pcd.c ****   * @param  hpcd PCD handle
1059:Drivers/STM32F4xx_HAL_Driver/Src/stm32f4xx_hal_pcd.c ****   * @param  ep_addr endpoint address
1060:Drivers/STM32F4xx_HAL_Driver/Src/stm32f4xx_hal_pcd.c ****   * @param  pBuf pointer to the transmission buffer   
1061:Drivers/STM32F4xx_HAL_Driver/Src/stm32f4xx_hal_pcd.c ****   * @param  len amount of data to be sent
1062:Drivers/STM32F4xx_HAL_Driver/Src/stm32f4xx_hal_pcd.c ****   * @retval HAL status
1063:Drivers/STM32F4xx_HAL_Driver/Src/stm32f4xx_hal_pcd.c ****   */
1064:Drivers/STM32F4xx_HAL_Driver/Src/stm32f4xx_hal_pcd.c **** HAL_StatusTypeDef HAL_PCD_EP_Transmit(PCD_HandleTypeDef *hpcd, uint8_t ep_addr, uint8_t *pBuf, uint
1065:Drivers/STM32F4xx_HAL_Driver/Src/stm32f4xx_hal_pcd.c **** {
1066:Drivers/STM32F4xx_HAL_Driver/Src/stm32f4xx_hal_pcd.c ****   USB_OTG_EPTypeDef *ep;
1067:Drivers/STM32F4xx_HAL_Driver/Src/stm32f4xx_hal_pcd.c ****   
1068:Drivers/STM32F4xx_HAL_Driver/Src/stm32f4xx_hal_pcd.c ****   ep = &hpcd->IN_ep[ep_addr & 0x7F];
1069:Drivers/STM32F4xx_HAL_Driver/Src/stm32f4xx_hal_pcd.c ****   
1070:Drivers/STM32F4xx_HAL_Driver/Src/stm32f4xx_hal_pcd.c ****   /*setup and start the Xfer */
1071:Drivers/STM32F4xx_HAL_Driver/Src/stm32f4xx_hal_pcd.c ****   ep->xfer_buff = pBuf;  
1072:Drivers/STM32F4xx_HAL_Driver/Src/stm32f4xx_hal_pcd.c ****   ep->xfer_len = len;
1073:Drivers/STM32F4xx_HAL_Driver/Src/stm32f4xx_hal_pcd.c ****   ep->xfer_count = 0U;
1074:Drivers/STM32F4xx_HAL_Driver/Src/stm32f4xx_hal_pcd.c ****   ep->is_in = 1U;
1075:Drivers/STM32F4xx_HAL_Driver/Src/stm32f4xx_hal_pcd.c ****   ep->num = ep_addr & 0x7F;
1076:Drivers/STM32F4xx_HAL_Driver/Src/stm32f4xx_hal_pcd.c ****   
1077:Drivers/STM32F4xx_HAL_Driver/Src/stm32f4xx_hal_pcd.c ****   if (hpcd->Init.dma_enable == 1U)
1078:Drivers/STM32F4xx_HAL_Driver/Src/stm32f4xx_hal_pcd.c ****   {
1079:Drivers/STM32F4xx_HAL_Driver/Src/stm32f4xx_hal_pcd.c ****     ep->dma_addr = (uint32_t)pBuf;  
1080:Drivers/STM32F4xx_HAL_Driver/Src/stm32f4xx_hal_pcd.c ****   }
1081:Drivers/STM32F4xx_HAL_Driver/Src/stm32f4xx_hal_pcd.c ****   
1082:Drivers/STM32F4xx_HAL_Driver/Src/stm32f4xx_hal_pcd.c ****   if ((ep_addr & 0x7F) == 0)
1083:Drivers/STM32F4xx_HAL_Driver/Src/stm32f4xx_hal_pcd.c ****   {
1084:Drivers/STM32F4xx_HAL_Driver/Src/stm32f4xx_hal_pcd.c ****     USB_EP0StartXfer(hpcd->Instance , ep, hpcd->Init.dma_enable);
1085:Drivers/STM32F4xx_HAL_Driver/Src/stm32f4xx_hal_pcd.c ****   }
1086:Drivers/STM32F4xx_HAL_Driver/Src/stm32f4xx_hal_pcd.c ****   else
1087:Drivers/STM32F4xx_HAL_Driver/Src/stm32f4xx_hal_pcd.c ****   {
1088:Drivers/STM32F4xx_HAL_Driver/Src/stm32f4xx_hal_pcd.c ****     USB_EPStartXfer(hpcd->Instance , ep, hpcd->Init.dma_enable);
1089:Drivers/STM32F4xx_HAL_Driver/Src/stm32f4xx_hal_pcd.c ****   }
1090:Drivers/STM32F4xx_HAL_Driver/Src/stm32f4xx_hal_pcd.c ****   
1091:Drivers/STM32F4xx_HAL_Driver/Src/stm32f4xx_hal_pcd.c ****   return HAL_OK;
1092:Drivers/STM32F4xx_HAL_Driver/Src/stm32f4xx_hal_pcd.c **** }
1093:Drivers/STM32F4xx_HAL_Driver/Src/stm32f4xx_hal_pcd.c **** 
1094:Drivers/STM32F4xx_HAL_Driver/Src/stm32f4xx_hal_pcd.c **** /**
1095:Drivers/STM32F4xx_HAL_Driver/Src/stm32f4xx_hal_pcd.c ****   * @brief  Set a STALL condition over an endpoint.
1096:Drivers/STM32F4xx_HAL_Driver/Src/stm32f4xx_hal_pcd.c ****   * @param  hpcd PCD handle
1097:Drivers/STM32F4xx_HAL_Driver/Src/stm32f4xx_hal_pcd.c ****   * @param  ep_addr endpoint address
1098:Drivers/STM32F4xx_HAL_Driver/Src/stm32f4xx_hal_pcd.c ****   * @retval HAL status
1099:Drivers/STM32F4xx_HAL_Driver/Src/stm32f4xx_hal_pcd.c ****   */
1100:Drivers/STM32F4xx_HAL_Driver/Src/stm32f4xx_hal_pcd.c **** HAL_StatusTypeDef HAL_PCD_EP_SetStall(PCD_HandleTypeDef *hpcd, uint8_t ep_addr)
1101:Drivers/STM32F4xx_HAL_Driver/Src/stm32f4xx_hal_pcd.c **** {
1102:Drivers/STM32F4xx_HAL_Driver/Src/stm32f4xx_hal_pcd.c ****   USB_OTG_EPTypeDef *ep;
1103:Drivers/STM32F4xx_HAL_Driver/Src/stm32f4xx_hal_pcd.c ****   
1104:Drivers/STM32F4xx_HAL_Driver/Src/stm32f4xx_hal_pcd.c ****   if ((0x80 & ep_addr) == 0x80)
1105:Drivers/STM32F4xx_HAL_Driver/Src/stm32f4xx_hal_pcd.c ****   {
1106:Drivers/STM32F4xx_HAL_Driver/Src/stm32f4xx_hal_pcd.c ****     ep = &hpcd->IN_ep[ep_addr & 0x7F];
1107:Drivers/STM32F4xx_HAL_Driver/Src/stm32f4xx_hal_pcd.c ****   }
1108:Drivers/STM32F4xx_HAL_Driver/Src/stm32f4xx_hal_pcd.c ****   else
1109:Drivers/STM32F4xx_HAL_Driver/Src/stm32f4xx_hal_pcd.c ****   {
1110:Drivers/STM32F4xx_HAL_Driver/Src/stm32f4xx_hal_pcd.c ****     ep = &hpcd->OUT_ep[ep_addr];
1111:Drivers/STM32F4xx_HAL_Driver/Src/stm32f4xx_hal_pcd.c ****   }
1112:Drivers/STM32F4xx_HAL_Driver/Src/stm32f4xx_hal_pcd.c ****   
1113:Drivers/STM32F4xx_HAL_Driver/Src/stm32f4xx_hal_pcd.c ****   ep->is_stall = 1U;
1114:Drivers/STM32F4xx_HAL_Driver/Src/stm32f4xx_hal_pcd.c ****   ep->num   = ep_addr & 0x7F;
ARM GAS  /tmp/ccUYINNg.s 			page 21


1115:Drivers/STM32F4xx_HAL_Driver/Src/stm32f4xx_hal_pcd.c ****   ep->is_in = ((ep_addr & 0x80) == 0x80);
1116:Drivers/STM32F4xx_HAL_Driver/Src/stm32f4xx_hal_pcd.c ****   
1117:Drivers/STM32F4xx_HAL_Driver/Src/stm32f4xx_hal_pcd.c ****   
1118:Drivers/STM32F4xx_HAL_Driver/Src/stm32f4xx_hal_pcd.c ****   __HAL_LOCK(hpcd); 
1119:Drivers/STM32F4xx_HAL_Driver/Src/stm32f4xx_hal_pcd.c ****   USB_EPSetStall(hpcd->Instance , ep);
1120:Drivers/STM32F4xx_HAL_Driver/Src/stm32f4xx_hal_pcd.c ****   if((ep_addr & 0x7F) == 0)
1121:Drivers/STM32F4xx_HAL_Driver/Src/stm32f4xx_hal_pcd.c ****   {
1122:Drivers/STM32F4xx_HAL_Driver/Src/stm32f4xx_hal_pcd.c ****     USB_EP0_OutStart(hpcd->Instance, hpcd->Init.dma_enable, (uint8_t *)hpcd->Setup);
1123:Drivers/STM32F4xx_HAL_Driver/Src/stm32f4xx_hal_pcd.c ****   }
1124:Drivers/STM32F4xx_HAL_Driver/Src/stm32f4xx_hal_pcd.c ****   __HAL_UNLOCK(hpcd); 
1125:Drivers/STM32F4xx_HAL_Driver/Src/stm32f4xx_hal_pcd.c ****   
1126:Drivers/STM32F4xx_HAL_Driver/Src/stm32f4xx_hal_pcd.c ****   return HAL_OK;
1127:Drivers/STM32F4xx_HAL_Driver/Src/stm32f4xx_hal_pcd.c **** }
1128:Drivers/STM32F4xx_HAL_Driver/Src/stm32f4xx_hal_pcd.c **** 
1129:Drivers/STM32F4xx_HAL_Driver/Src/stm32f4xx_hal_pcd.c **** /**
1130:Drivers/STM32F4xx_HAL_Driver/Src/stm32f4xx_hal_pcd.c ****   * @brief  Clear a STALL condition over in an endpoint.
1131:Drivers/STM32F4xx_HAL_Driver/Src/stm32f4xx_hal_pcd.c ****   * @param  hpcd PCD handle
1132:Drivers/STM32F4xx_HAL_Driver/Src/stm32f4xx_hal_pcd.c ****   * @param  ep_addr endpoint address
1133:Drivers/STM32F4xx_HAL_Driver/Src/stm32f4xx_hal_pcd.c ****   * @retval HAL status
1134:Drivers/STM32F4xx_HAL_Driver/Src/stm32f4xx_hal_pcd.c ****   */
1135:Drivers/STM32F4xx_HAL_Driver/Src/stm32f4xx_hal_pcd.c **** HAL_StatusTypeDef HAL_PCD_EP_ClrStall(PCD_HandleTypeDef *hpcd, uint8_t ep_addr)
1136:Drivers/STM32F4xx_HAL_Driver/Src/stm32f4xx_hal_pcd.c **** {
1137:Drivers/STM32F4xx_HAL_Driver/Src/stm32f4xx_hal_pcd.c ****   USB_OTG_EPTypeDef *ep;
1138:Drivers/STM32F4xx_HAL_Driver/Src/stm32f4xx_hal_pcd.c ****   
1139:Drivers/STM32F4xx_HAL_Driver/Src/stm32f4xx_hal_pcd.c ****   if ((0x80 & ep_addr) == 0x80)
1140:Drivers/STM32F4xx_HAL_Driver/Src/stm32f4xx_hal_pcd.c ****   {
1141:Drivers/STM32F4xx_HAL_Driver/Src/stm32f4xx_hal_pcd.c ****     ep = &hpcd->IN_ep[ep_addr & 0x7F];
1142:Drivers/STM32F4xx_HAL_Driver/Src/stm32f4xx_hal_pcd.c ****   }
1143:Drivers/STM32F4xx_HAL_Driver/Src/stm32f4xx_hal_pcd.c ****   else
1144:Drivers/STM32F4xx_HAL_Driver/Src/stm32f4xx_hal_pcd.c ****   {
1145:Drivers/STM32F4xx_HAL_Driver/Src/stm32f4xx_hal_pcd.c ****     ep = &hpcd->OUT_ep[ep_addr];
1146:Drivers/STM32F4xx_HAL_Driver/Src/stm32f4xx_hal_pcd.c ****   }
1147:Drivers/STM32F4xx_HAL_Driver/Src/stm32f4xx_hal_pcd.c ****   
1148:Drivers/STM32F4xx_HAL_Driver/Src/stm32f4xx_hal_pcd.c ****   ep->is_stall = 0U;
1149:Drivers/STM32F4xx_HAL_Driver/Src/stm32f4xx_hal_pcd.c ****   ep->num   = ep_addr & 0x7F;
1150:Drivers/STM32F4xx_HAL_Driver/Src/stm32f4xx_hal_pcd.c ****   ep->is_in = ((ep_addr & 0x80) == 0x80);
1151:Drivers/STM32F4xx_HAL_Driver/Src/stm32f4xx_hal_pcd.c ****   
1152:Drivers/STM32F4xx_HAL_Driver/Src/stm32f4xx_hal_pcd.c ****   __HAL_LOCK(hpcd); 
1153:Drivers/STM32F4xx_HAL_Driver/Src/stm32f4xx_hal_pcd.c ****   USB_EPClearStall(hpcd->Instance , ep);
1154:Drivers/STM32F4xx_HAL_Driver/Src/stm32f4xx_hal_pcd.c ****   __HAL_UNLOCK(hpcd); 
1155:Drivers/STM32F4xx_HAL_Driver/Src/stm32f4xx_hal_pcd.c ****     
1156:Drivers/STM32F4xx_HAL_Driver/Src/stm32f4xx_hal_pcd.c ****   return HAL_OK;
1157:Drivers/STM32F4xx_HAL_Driver/Src/stm32f4xx_hal_pcd.c **** }
1158:Drivers/STM32F4xx_HAL_Driver/Src/stm32f4xx_hal_pcd.c **** 
1159:Drivers/STM32F4xx_HAL_Driver/Src/stm32f4xx_hal_pcd.c **** /**
1160:Drivers/STM32F4xx_HAL_Driver/Src/stm32f4xx_hal_pcd.c ****   * @brief  Flush an endpoint.
1161:Drivers/STM32F4xx_HAL_Driver/Src/stm32f4xx_hal_pcd.c ****   * @param  hpcd PCD handle
1162:Drivers/STM32F4xx_HAL_Driver/Src/stm32f4xx_hal_pcd.c ****   * @param  ep_addr endpoint address
1163:Drivers/STM32F4xx_HAL_Driver/Src/stm32f4xx_hal_pcd.c ****   * @retval HAL status
1164:Drivers/STM32F4xx_HAL_Driver/Src/stm32f4xx_hal_pcd.c ****   */
1165:Drivers/STM32F4xx_HAL_Driver/Src/stm32f4xx_hal_pcd.c **** HAL_StatusTypeDef HAL_PCD_EP_Flush(PCD_HandleTypeDef *hpcd, uint8_t ep_addr)
1166:Drivers/STM32F4xx_HAL_Driver/Src/stm32f4xx_hal_pcd.c **** {
1167:Drivers/STM32F4xx_HAL_Driver/Src/stm32f4xx_hal_pcd.c ****   __HAL_LOCK(hpcd); 
1168:Drivers/STM32F4xx_HAL_Driver/Src/stm32f4xx_hal_pcd.c ****   
1169:Drivers/STM32F4xx_HAL_Driver/Src/stm32f4xx_hal_pcd.c ****   if ((ep_addr & 0x80) == 0x80)
1170:Drivers/STM32F4xx_HAL_Driver/Src/stm32f4xx_hal_pcd.c ****   {
1171:Drivers/STM32F4xx_HAL_Driver/Src/stm32f4xx_hal_pcd.c ****     USB_FlushTxFifo(hpcd->Instance, ep_addr & 0x7F);
ARM GAS  /tmp/ccUYINNg.s 			page 22


1172:Drivers/STM32F4xx_HAL_Driver/Src/stm32f4xx_hal_pcd.c ****   }
1173:Drivers/STM32F4xx_HAL_Driver/Src/stm32f4xx_hal_pcd.c ****   else
1174:Drivers/STM32F4xx_HAL_Driver/Src/stm32f4xx_hal_pcd.c ****   {
1175:Drivers/STM32F4xx_HAL_Driver/Src/stm32f4xx_hal_pcd.c ****     USB_FlushRxFifo(hpcd->Instance);
1176:Drivers/STM32F4xx_HAL_Driver/Src/stm32f4xx_hal_pcd.c ****   }
1177:Drivers/STM32F4xx_HAL_Driver/Src/stm32f4xx_hal_pcd.c ****   
1178:Drivers/STM32F4xx_HAL_Driver/Src/stm32f4xx_hal_pcd.c ****   __HAL_UNLOCK(hpcd); 
1179:Drivers/STM32F4xx_HAL_Driver/Src/stm32f4xx_hal_pcd.c ****     
1180:Drivers/STM32F4xx_HAL_Driver/Src/stm32f4xx_hal_pcd.c ****   return HAL_OK;
1181:Drivers/STM32F4xx_HAL_Driver/Src/stm32f4xx_hal_pcd.c **** }
1182:Drivers/STM32F4xx_HAL_Driver/Src/stm32f4xx_hal_pcd.c **** 
1183:Drivers/STM32F4xx_HAL_Driver/Src/stm32f4xx_hal_pcd.c **** /**
1184:Drivers/STM32F4xx_HAL_Driver/Src/stm32f4xx_hal_pcd.c ****   * @brief  Activate remote wakeup signalling.
1185:Drivers/STM32F4xx_HAL_Driver/Src/stm32f4xx_hal_pcd.c ****   * @param  hpcd PCD handle
1186:Drivers/STM32F4xx_HAL_Driver/Src/stm32f4xx_hal_pcd.c ****   * @retval HAL status
1187:Drivers/STM32F4xx_HAL_Driver/Src/stm32f4xx_hal_pcd.c ****   */
1188:Drivers/STM32F4xx_HAL_Driver/Src/stm32f4xx_hal_pcd.c **** HAL_StatusTypeDef HAL_PCD_ActivateRemoteWakeup(PCD_HandleTypeDef *hpcd)
1189:Drivers/STM32F4xx_HAL_Driver/Src/stm32f4xx_hal_pcd.c **** {
1190:Drivers/STM32F4xx_HAL_Driver/Src/stm32f4xx_hal_pcd.c ****   USB_OTG_GlobalTypeDef *USBx = hpcd->Instance;  
1191:Drivers/STM32F4xx_HAL_Driver/Src/stm32f4xx_hal_pcd.c ****     
1192:Drivers/STM32F4xx_HAL_Driver/Src/stm32f4xx_hal_pcd.c ****   if((USBx_DEVICE->DSTS & USB_OTG_DSTS_SUSPSTS) == USB_OTG_DSTS_SUSPSTS)
1193:Drivers/STM32F4xx_HAL_Driver/Src/stm32f4xx_hal_pcd.c ****   {
1194:Drivers/STM32F4xx_HAL_Driver/Src/stm32f4xx_hal_pcd.c ****     /* Activate Remote wakeup signaling */
1195:Drivers/STM32F4xx_HAL_Driver/Src/stm32f4xx_hal_pcd.c ****     USBx_DEVICE->DCTL |= USB_OTG_DCTL_RWUSIG;
1196:Drivers/STM32F4xx_HAL_Driver/Src/stm32f4xx_hal_pcd.c ****   }
1197:Drivers/STM32F4xx_HAL_Driver/Src/stm32f4xx_hal_pcd.c ****   return HAL_OK;  
1198:Drivers/STM32F4xx_HAL_Driver/Src/stm32f4xx_hal_pcd.c **** }
1199:Drivers/STM32F4xx_HAL_Driver/Src/stm32f4xx_hal_pcd.c **** 
1200:Drivers/STM32F4xx_HAL_Driver/Src/stm32f4xx_hal_pcd.c **** /**
1201:Drivers/STM32F4xx_HAL_Driver/Src/stm32f4xx_hal_pcd.c ****   * @brief  De-activate remote wakeup signalling.
1202:Drivers/STM32F4xx_HAL_Driver/Src/stm32f4xx_hal_pcd.c ****   * @param  hpcd PCD handle
1203:Drivers/STM32F4xx_HAL_Driver/Src/stm32f4xx_hal_pcd.c ****   * @retval HAL status
1204:Drivers/STM32F4xx_HAL_Driver/Src/stm32f4xx_hal_pcd.c ****   */
1205:Drivers/STM32F4xx_HAL_Driver/Src/stm32f4xx_hal_pcd.c **** HAL_StatusTypeDef HAL_PCD_DeActivateRemoteWakeup(PCD_HandleTypeDef *hpcd)
1206:Drivers/STM32F4xx_HAL_Driver/Src/stm32f4xx_hal_pcd.c **** {
1207:Drivers/STM32F4xx_HAL_Driver/Src/stm32f4xx_hal_pcd.c ****   USB_OTG_GlobalTypeDef *USBx = hpcd->Instance;  
1208:Drivers/STM32F4xx_HAL_Driver/Src/stm32f4xx_hal_pcd.c ****   
1209:Drivers/STM32F4xx_HAL_Driver/Src/stm32f4xx_hal_pcd.c ****   /* De-activate Remote wakeup signaling */
1210:Drivers/STM32F4xx_HAL_Driver/Src/stm32f4xx_hal_pcd.c ****   USBx_DEVICE->DCTL &= ~(USB_OTG_DCTL_RWUSIG);
1211:Drivers/STM32F4xx_HAL_Driver/Src/stm32f4xx_hal_pcd.c ****   return HAL_OK;  
1212:Drivers/STM32F4xx_HAL_Driver/Src/stm32f4xx_hal_pcd.c **** }
1213:Drivers/STM32F4xx_HAL_Driver/Src/stm32f4xx_hal_pcd.c **** /**
1214:Drivers/STM32F4xx_HAL_Driver/Src/stm32f4xx_hal_pcd.c ****   * @}
1215:Drivers/STM32F4xx_HAL_Driver/Src/stm32f4xx_hal_pcd.c ****   */
1216:Drivers/STM32F4xx_HAL_Driver/Src/stm32f4xx_hal_pcd.c ****   
1217:Drivers/STM32F4xx_HAL_Driver/Src/stm32f4xx_hal_pcd.c **** /** @defgroup PCD_Exported_Functions_Group4 Peripheral State functions 
1218:Drivers/STM32F4xx_HAL_Driver/Src/stm32f4xx_hal_pcd.c ****  *  @brief   Peripheral State functions
1219:Drivers/STM32F4xx_HAL_Driver/Src/stm32f4xx_hal_pcd.c ****  *
1220:Drivers/STM32F4xx_HAL_Driver/Src/stm32f4xx_hal_pcd.c **** @verbatim  
1221:Drivers/STM32F4xx_HAL_Driver/Src/stm32f4xx_hal_pcd.c ****  ===============================================================================
1222:Drivers/STM32F4xx_HAL_Driver/Src/stm32f4xx_hal_pcd.c ****                       ##### Peripheral State functions #####
1223:Drivers/STM32F4xx_HAL_Driver/Src/stm32f4xx_hal_pcd.c ****  ===============================================================================  
1224:Drivers/STM32F4xx_HAL_Driver/Src/stm32f4xx_hal_pcd.c ****     [..]
1225:Drivers/STM32F4xx_HAL_Driver/Src/stm32f4xx_hal_pcd.c ****     This subsection permits to get in run-time the status of the peripheral 
1226:Drivers/STM32F4xx_HAL_Driver/Src/stm32f4xx_hal_pcd.c ****     and the data flow.
1227:Drivers/STM32F4xx_HAL_Driver/Src/stm32f4xx_hal_pcd.c **** 
1228:Drivers/STM32F4xx_HAL_Driver/Src/stm32f4xx_hal_pcd.c **** @endverbatim
ARM GAS  /tmp/ccUYINNg.s 			page 23


1229:Drivers/STM32F4xx_HAL_Driver/Src/stm32f4xx_hal_pcd.c ****   * @{
1230:Drivers/STM32F4xx_HAL_Driver/Src/stm32f4xx_hal_pcd.c ****   */
1231:Drivers/STM32F4xx_HAL_Driver/Src/stm32f4xx_hal_pcd.c **** 
1232:Drivers/STM32F4xx_HAL_Driver/Src/stm32f4xx_hal_pcd.c **** /**
1233:Drivers/STM32F4xx_HAL_Driver/Src/stm32f4xx_hal_pcd.c ****   * @brief  Return the PCD handle state.
1234:Drivers/STM32F4xx_HAL_Driver/Src/stm32f4xx_hal_pcd.c ****   * @param  hpcd PCD handle
1235:Drivers/STM32F4xx_HAL_Driver/Src/stm32f4xx_hal_pcd.c ****   * @retval HAL state
1236:Drivers/STM32F4xx_HAL_Driver/Src/stm32f4xx_hal_pcd.c ****   */
1237:Drivers/STM32F4xx_HAL_Driver/Src/stm32f4xx_hal_pcd.c **** PCD_StateTypeDef HAL_PCD_GetState(PCD_HandleTypeDef *hpcd)
1238:Drivers/STM32F4xx_HAL_Driver/Src/stm32f4xx_hal_pcd.c **** {
1239:Drivers/STM32F4xx_HAL_Driver/Src/stm32f4xx_hal_pcd.c ****   return hpcd->State;
1240:Drivers/STM32F4xx_HAL_Driver/Src/stm32f4xx_hal_pcd.c **** }
1241:Drivers/STM32F4xx_HAL_Driver/Src/stm32f4xx_hal_pcd.c **** /**
1242:Drivers/STM32F4xx_HAL_Driver/Src/stm32f4xx_hal_pcd.c ****   * @}
1243:Drivers/STM32F4xx_HAL_Driver/Src/stm32f4xx_hal_pcd.c ****   */
1244:Drivers/STM32F4xx_HAL_Driver/Src/stm32f4xx_hal_pcd.c **** 
1245:Drivers/STM32F4xx_HAL_Driver/Src/stm32f4xx_hal_pcd.c **** /**
1246:Drivers/STM32F4xx_HAL_Driver/Src/stm32f4xx_hal_pcd.c ****   * @}
1247:Drivers/STM32F4xx_HAL_Driver/Src/stm32f4xx_hal_pcd.c ****   */
1248:Drivers/STM32F4xx_HAL_Driver/Src/stm32f4xx_hal_pcd.c **** 
1249:Drivers/STM32F4xx_HAL_Driver/Src/stm32f4xx_hal_pcd.c **** /* Private functions ---------------------------------------------------------*/
1250:Drivers/STM32F4xx_HAL_Driver/Src/stm32f4xx_hal_pcd.c **** /** @addtogroup PCD_Private_Functions
1251:Drivers/STM32F4xx_HAL_Driver/Src/stm32f4xx_hal_pcd.c ****   * @{
1252:Drivers/STM32F4xx_HAL_Driver/Src/stm32f4xx_hal_pcd.c ****   */
1253:Drivers/STM32F4xx_HAL_Driver/Src/stm32f4xx_hal_pcd.c **** 
1254:Drivers/STM32F4xx_HAL_Driver/Src/stm32f4xx_hal_pcd.c **** /**
1255:Drivers/STM32F4xx_HAL_Driver/Src/stm32f4xx_hal_pcd.c ****   * @brief  Check FIFO for the next packet to be loaded.
1256:Drivers/STM32F4xx_HAL_Driver/Src/stm32f4xx_hal_pcd.c ****   * @param  hpcd PCD handle
1257:Drivers/STM32F4xx_HAL_Driver/Src/stm32f4xx_hal_pcd.c ****   * @param  epnum  endpoint number   
1258:Drivers/STM32F4xx_HAL_Driver/Src/stm32f4xx_hal_pcd.c ****   * @retval HAL status
1259:Drivers/STM32F4xx_HAL_Driver/Src/stm32f4xx_hal_pcd.c ****   */
1260:Drivers/STM32F4xx_HAL_Driver/Src/stm32f4xx_hal_pcd.c **** static HAL_StatusTypeDef PCD_WriteEmptyTxFifo(PCD_HandleTypeDef *hpcd, uint32_t epnum)
1261:Drivers/STM32F4xx_HAL_Driver/Src/stm32f4xx_hal_pcd.c **** {
  28              		.loc 1 1261 0
  29              		.cfi_startproc
  30              		@ args = 0, pretend = 0, frame = 0
  31              		@ frame_needed = 0, uses_anonymous_args = 0
  32              	.LVL0:
  33 0000 2DE9F047 		push	{r4, r5, r6, r7, r8, r9, r10, lr}
  34              	.LCFI0:
  35              		.cfi_def_cfa_offset 32
  36              		.cfi_offset 4, -32
  37              		.cfi_offset 5, -28
  38              		.cfi_offset 6, -24
  39              		.cfi_offset 7, -20
  40              		.cfi_offset 8, -16
  41              		.cfi_offset 9, -12
  42              		.cfi_offset 10, -8
  43              		.cfi_offset 14, -4
  44 0004 82B0     		sub	sp, sp, #8
  45              	.LCFI1:
  46              		.cfi_def_cfa_offset 40
  47 0006 0746     		mov	r7, r0
  48 0008 0D46     		mov	r5, r1
1262:Drivers/STM32F4xx_HAL_Driver/Src/stm32f4xx_hal_pcd.c ****   USB_OTG_GlobalTypeDef *USBx = hpcd->Instance;  
  49              		.loc 1 1262 0
  50 000a D0F80080 		ldr	r8, [r0]
ARM GAS  /tmp/ccUYINNg.s 			page 24


  51              	.LVL1:
1263:Drivers/STM32F4xx_HAL_Driver/Src/stm32f4xx_hal_pcd.c ****   USB_OTG_EPTypeDef *ep;
1264:Drivers/STM32F4xx_HAL_Driver/Src/stm32f4xx_hal_pcd.c ****   int32_t len = 0U;
1265:Drivers/STM32F4xx_HAL_Driver/Src/stm32f4xx_hal_pcd.c ****   uint32_t len32b;
1266:Drivers/STM32F4xx_HAL_Driver/Src/stm32f4xx_hal_pcd.c ****   uint32_t fifoemptymsk = 0U;
1267:Drivers/STM32F4xx_HAL_Driver/Src/stm32f4xx_hal_pcd.c **** 
1268:Drivers/STM32F4xx_HAL_Driver/Src/stm32f4xx_hal_pcd.c ****   ep = &hpcd->IN_ep[epnum];
1269:Drivers/STM32F4xx_HAL_Driver/Src/stm32f4xx_hal_pcd.c ****   len = ep->xfer_len - ep->xfer_count;
  52              		.loc 1 1269 0
  53 000e CB00     		lsls	r3, r1, #3
  54 0010 5B1A     		subs	r3, r3, r1
  55 0012 9B00     		lsls	r3, r3, #2
  56 0014 0344     		add	r3, r3, r0
  57 0016 DE6C     		ldr	r6, [r3, #76]
  58 0018 1A6D     		ldr	r2, [r3, #80]
  59 001a B61A     		subs	r6, r6, r2
  60              	.LVL2:
1270:Drivers/STM32F4xx_HAL_Driver/Src/stm32f4xx_hal_pcd.c ****   
1271:Drivers/STM32F4xx_HAL_Driver/Src/stm32f4xx_hal_pcd.c ****   if (len > ep->maxpacket)
  61              		.loc 1 1271 0
  62 001c 1B6C     		ldr	r3, [r3, #64]
  63 001e 9E42     		cmp	r6, r3
  64 0020 00D9     		bls	.L2
1272:Drivers/STM32F4xx_HAL_Driver/Src/stm32f4xx_hal_pcd.c ****   {
1273:Drivers/STM32F4xx_HAL_Driver/Src/stm32f4xx_hal_pcd.c ****     len = ep->maxpacket;
  65              		.loc 1 1273 0
  66 0022 1E46     		mov	r6, r3
  67              	.LVL3:
  68              	.L2:
1274:Drivers/STM32F4xx_HAL_Driver/Src/stm32f4xx_hal_pcd.c ****   }
1275:Drivers/STM32F4xx_HAL_Driver/Src/stm32f4xx_hal_pcd.c ****   
1276:Drivers/STM32F4xx_HAL_Driver/Src/stm32f4xx_hal_pcd.c ****   
1277:Drivers/STM32F4xx_HAL_Driver/Src/stm32f4xx_hal_pcd.c ****   len32b = (len + 3U) / 4U;
  69              		.loc 1 1277 0
  70 0024 06F10309 		add	r9, r6, #3
  71 0028 4FEA9909 		lsr	r9, r9, #2
  72              	.LVL4:
1278:Drivers/STM32F4xx_HAL_Driver/Src/stm32f4xx_hal_pcd.c ****  
1279:Drivers/STM32F4xx_HAL_Driver/Src/stm32f4xx_hal_pcd.c ****   while  (((USBx_INEP(epnum)->DTXFSTS & USB_OTG_DTXFSTS_INEPTFSAV) > len32b) &&
  73              		.loc 1 1279 0
  74 002c 1EE0     		b	.L3
  75              	.LVL5:
  76              	.L6:
1280:Drivers/STM32F4xx_HAL_Driver/Src/stm32f4xx_hal_pcd.c ****           (ep->xfer_count < ep->xfer_len) &&
1281:Drivers/STM32F4xx_HAL_Driver/Src/stm32f4xx_hal_pcd.c ****             (ep->xfer_len != 0U))
1282:Drivers/STM32F4xx_HAL_Driver/Src/stm32f4xx_hal_pcd.c ****   {
1283:Drivers/STM32F4xx_HAL_Driver/Src/stm32f4xx_hal_pcd.c ****     /* Write the FIFO */
1284:Drivers/STM32F4xx_HAL_Driver/Src/stm32f4xx_hal_pcd.c ****     len = ep->xfer_len - ep->xfer_count;
  77              		.loc 1 1284 0
  78 002e 5E1A     		subs	r6, r3, r1
  79              	.LVL6:
1285:Drivers/STM32F4xx_HAL_Driver/Src/stm32f4xx_hal_pcd.c ****     
1286:Drivers/STM32F4xx_HAL_Driver/Src/stm32f4xx_hal_pcd.c ****     if (len > ep->maxpacket)
  80              		.loc 1 1286 0
  81 0030 C5EBC503 		rsb	r3, r5, r5, lsl #3
  82 0034 9B00     		lsls	r3, r3, #2
  83 0036 3B44     		add	r3, r3, r7
ARM GAS  /tmp/ccUYINNg.s 			page 25


  84 0038 1B6C     		ldr	r3, [r3, #64]
  85 003a 9E42     		cmp	r6, r3
  86 003c 00D9     		bls	.L4
1287:Drivers/STM32F4xx_HAL_Driver/Src/stm32f4xx_hal_pcd.c ****     {
1288:Drivers/STM32F4xx_HAL_Driver/Src/stm32f4xx_hal_pcd.c ****       len = ep->maxpacket;
  87              		.loc 1 1288 0
  88 003e 1E46     		mov	r6, r3
  89              	.LVL7:
  90              	.L4:
1289:Drivers/STM32F4xx_HAL_Driver/Src/stm32f4xx_hal_pcd.c ****     }
1290:Drivers/STM32F4xx_HAL_Driver/Src/stm32f4xx_hal_pcd.c ****     len32b = (len + 3U) / 4U;
  91              		.loc 1 1290 0
  92 0040 06F10309 		add	r9, r6, #3
  93              	.LVL8:
  94 0044 4FEA9909 		lsr	r9, r9, #2
  95              	.LVL9:
1291:Drivers/STM32F4xx_HAL_Driver/Src/stm32f4xx_hal_pcd.c ****     
1292:Drivers/STM32F4xx_HAL_Driver/Src/stm32f4xx_hal_pcd.c ****     USB_WritePacket(USBx, ep->xfer_buff, epnum, len, hpcd->Init.dma_enable); 
  96              		.loc 1 1292 0
  97 0048 EC00     		lsls	r4, r5, #3
  98 004a 641B     		subs	r4, r4, r5
  99 004c A400     		lsls	r4, r4, #2
 100 004e 3C44     		add	r4, r4, r7
 101 0050 616C     		ldr	r1, [r4, #68]
 102 0052 3B7C     		ldrb	r3, [r7, #16]	@ zero_extendqisi2
 103 0054 0093     		str	r3, [sp]
 104 0056 4046     		mov	r0, r8
 105 0058 EAB2     		uxtb	r2, r5
 106              	.LVL10:
 107 005a B3B2     		uxth	r3, r6
 108 005c FFF7FEFF 		bl	USB_WritePacket
 109              	.LVL11:
1293:Drivers/STM32F4xx_HAL_Driver/Src/stm32f4xx_hal_pcd.c ****     
1294:Drivers/STM32F4xx_HAL_Driver/Src/stm32f4xx_hal_pcd.c ****     ep->xfer_buff  += len;
 110              		.loc 1 1294 0
 111 0060 636C     		ldr	r3, [r4, #68]
 112 0062 3344     		add	r3, r3, r6
 113 0064 6364     		str	r3, [r4, #68]
1295:Drivers/STM32F4xx_HAL_Driver/Src/stm32f4xx_hal_pcd.c ****     ep->xfer_count += len;
 114              		.loc 1 1295 0
 115 0066 236D     		ldr	r3, [r4, #80]
 116 0068 3344     		add	r3, r3, r6
 117 006a 2365     		str	r3, [r4, #80]
 118              	.L3:
1279:Drivers/STM32F4xx_HAL_Driver/Src/stm32f4xx_hal_pcd.c ****           (ep->xfer_count < ep->xfer_len) &&
 119              		.loc 1 1279 0
 120 006c 4246     		mov	r2, r8
 121 006e 08EB4513 		add	r3, r8, r5, lsl #5
 122 0072 03F51063 		add	r3, r3, #2304
 123 0076 9B69     		ldr	r3, [r3, #24]
 124 0078 9BB2     		uxth	r3, r3
 125 007a 4B45     		cmp	r3, r9
 126 007c 09D9     		bls	.L5
 127              	.LVL12:
1280:Drivers/STM32F4xx_HAL_Driver/Src/stm32f4xx_hal_pcd.c ****             (ep->xfer_len != 0U))
 128              		.loc 1 1280 0 discriminator 1
 129 007e EB00     		lsls	r3, r5, #3
ARM GAS  /tmp/ccUYINNg.s 			page 26


 130 0080 5B1B     		subs	r3, r3, r5
 131 0082 9B00     		lsls	r3, r3, #2
 132 0084 3B44     		add	r3, r3, r7
 133 0086 196D     		ldr	r1, [r3, #80]
 134 0088 DB6C     		ldr	r3, [r3, #76]
1279:Drivers/STM32F4xx_HAL_Driver/Src/stm32f4xx_hal_pcd.c ****           (ep->xfer_count < ep->xfer_len) &&
 135              		.loc 1 1279 0 discriminator 1
 136 008a 9942     		cmp	r1, r3
 137 008c 01D2     		bcs	.L5
1280:Drivers/STM32F4xx_HAL_Driver/Src/stm32f4xx_hal_pcd.c ****             (ep->xfer_len != 0U))
 138              		.loc 1 1280 0
 139 008e 002B     		cmp	r3, #0
 140 0090 CDD1     		bne	.L6
 141              	.L5:
1296:Drivers/STM32F4xx_HAL_Driver/Src/stm32f4xx_hal_pcd.c ****   }
1297:Drivers/STM32F4xx_HAL_Driver/Src/stm32f4xx_hal_pcd.c ****   
1298:Drivers/STM32F4xx_HAL_Driver/Src/stm32f4xx_hal_pcd.c ****   if(len <= 0U)
 142              		.loc 1 1298 0
 143 0092 3EB9     		cbnz	r6, .L7
1299:Drivers/STM32F4xx_HAL_Driver/Src/stm32f4xx_hal_pcd.c ****   {
1300:Drivers/STM32F4xx_HAL_Driver/Src/stm32f4xx_hal_pcd.c ****     fifoemptymsk = 0x1U << epnum;
 144              		.loc 1 1300 0
 145 0094 0123     		movs	r3, #1
 146 0096 AB40     		lsls	r3, r3, r5
 147              	.LVL13:
1301:Drivers/STM32F4xx_HAL_Driver/Src/stm32f4xx_hal_pcd.c ****     USBx_DEVICE->DIEPEMPMSK &= ~fifoemptymsk;
 148              		.loc 1 1301 0
 149 0098 D2F83418 		ldr	r1, [r2, #2100]
 150 009c 21EA0303 		bic	r3, r1, r3
 151              	.LVL14:
 152 00a0 C2F83438 		str	r3, [r2, #2100]
 153              	.LVL15:
 154              	.L7:
1302:Drivers/STM32F4xx_HAL_Driver/Src/stm32f4xx_hal_pcd.c ****     
1303:Drivers/STM32F4xx_HAL_Driver/Src/stm32f4xx_hal_pcd.c ****   }
1304:Drivers/STM32F4xx_HAL_Driver/Src/stm32f4xx_hal_pcd.c ****   
1305:Drivers/STM32F4xx_HAL_Driver/Src/stm32f4xx_hal_pcd.c ****   return HAL_OK;  
1306:Drivers/STM32F4xx_HAL_Driver/Src/stm32f4xx_hal_pcd.c **** }
 155              		.loc 1 1306 0
 156 00a4 0020     		movs	r0, #0
 157 00a6 02B0     		add	sp, sp, #8
 158              	.LCFI2:
 159              		.cfi_def_cfa_offset 32
 160              		@ sp needed
 161 00a8 BDE8F087 		pop	{r4, r5, r6, r7, r8, r9, r10, pc}
 162              		.cfi_endproc
 163              	.LFE155:
 165              		.section	.text.HAL_PCD_MspInit,"ax",%progbits
 166              		.align	2
 167              		.weak	HAL_PCD_MspInit
 168              		.thumb
 169              		.thumb_func
 171              	HAL_PCD_MspInit:
 172              	.LFB125:
 249:Drivers/STM32F4xx_HAL_Driver/Src/stm32f4xx_hal_pcd.c ****   /* Prevent unused argument(s) compilation warning */
 173              		.loc 1 249 0
 174              		.cfi_startproc
ARM GAS  /tmp/ccUYINNg.s 			page 27


 175              		@ args = 0, pretend = 0, frame = 0
 176              		@ frame_needed = 0, uses_anonymous_args = 0
 177              		@ link register save eliminated.
 178              	.LVL16:
 179 0000 7047     		bx	lr
 180              		.cfi_endproc
 181              	.LFE125:
 183 0002 00BF     		.section	.text.HAL_PCD_Init,"ax",%progbits
 184              		.align	2
 185              		.global	HAL_PCD_Init
 186              		.thumb
 187              		.thumb_func
 189              	HAL_PCD_Init:
 190              	.LFB123:
 138:Drivers/STM32F4xx_HAL_Driver/Src/stm32f4xx_hal_pcd.c ****   uint32_t i = 0U;
 191              		.loc 1 138 0
 192              		.cfi_startproc
 193              		@ args = 0, pretend = 0, frame = 0
 194              		@ frame_needed = 0, uses_anonymous_args = 0
 195              	.LVL17:
 142:Drivers/STM32F4xx_HAL_Driver/Src/stm32f4xx_hal_pcd.c ****   {
 196              		.loc 1 142 0
 197 0000 0028     		cmp	r0, #0
 198 0002 6AD0     		beq	.L16
 138:Drivers/STM32F4xx_HAL_Driver/Src/stm32f4xx_hal_pcd.c ****   uint32_t i = 0U;
 199              		.loc 1 138 0
 200 0004 F0B5     		push	{r4, r5, r6, r7, lr}
 201              	.LCFI3:
 202              		.cfi_def_cfa_offset 20
 203              		.cfi_offset 4, -20
 204              		.cfi_offset 5, -16
 205              		.cfi_offset 6, -12
 206              		.cfi_offset 7, -8
 207              		.cfi_offset 14, -4
 208 0006 8BB0     		sub	sp, sp, #44
 209              	.LCFI4:
 210              		.cfi_def_cfa_offset 64
 211 0008 0446     		mov	r4, r0
 150:Drivers/STM32F4xx_HAL_Driver/Src/stm32f4xx_hal_pcd.c ****   
 212              		.loc 1 150 0
 213 000a 0323     		movs	r3, #3
 214 000c 80F8B933 		strb	r3, [r0, #953]
 153:Drivers/STM32F4xx_HAL_Driver/Src/stm32f4xx_hal_pcd.c **** 
 215              		.loc 1 153 0
 216 0010 FFF7FEFF 		bl	HAL_PCD_MspInit
 217              	.LVL18:
 156:Drivers/STM32F4xx_HAL_Driver/Src/stm32f4xx_hal_pcd.c ****  
 218              		.loc 1 156 0
 219 0014 2068     		ldr	r0, [r4]
 220 0016 FFF7FEFF 		bl	USB_DisableGlobalInt
 221              	.LVL19:
 159:Drivers/STM32F4xx_HAL_Driver/Src/stm32f4xx_hal_pcd.c ****  
 222              		.loc 1 159 0
 223 001a 2546     		mov	r5, r4
 224 001c 55F8107B 		ldr	r7, [r5], #16
 225 0020 6E46     		mov	r6, sp
 226 0022 0FCD     		ldmia	r5!, {r0, r1, r2, r3}
ARM GAS  /tmp/ccUYINNg.s 			page 28


 227 0024 0FC6     		stmia	r6!, {r0, r1, r2, r3}
 228 0026 0FCD     		ldmia	r5!, {r0, r1, r2, r3}
 229 0028 0FC6     		stmia	r6!, {r0, r1, r2, r3}
 230 002a 95E80300 		ldmia	r5, {r0, r1}
 231 002e 86E80300 		stmia	r6, {r0, r1}
 232 0032 231D     		adds	r3, r4, #4
 233 0034 0ECB     		ldmia	r3, {r1, r2, r3}
 234 0036 3846     		mov	r0, r7
 235 0038 FFF7FEFF 		bl	USB_CoreInit
 236              	.LVL20:
 162:Drivers/STM32F4xx_HAL_Driver/Src/stm32f4xx_hal_pcd.c ****  
 237              		.loc 1 162 0
 238 003c 2068     		ldr	r0, [r4]
 239 003e 0021     		movs	r1, #0
 240 0040 FFF7FEFF 		bl	USB_SetCurrentMode
 241              	.LVL21:
 165:Drivers/STM32F4xx_HAL_Driver/Src/stm32f4xx_hal_pcd.c ****  {
 242              		.loc 1 165 0
 243 0044 0022     		movs	r2, #0
 244 0046 10E0     		b	.L12
 245              	.LVL22:
 246              	.L13:
 168:Drivers/STM32F4xx_HAL_Driver/Src/stm32f4xx_hal_pcd.c ****    hpcd->IN_ep[i].num = i;
 247              		.loc 1 168 0 discriminator 3
 248 0048 D300     		lsls	r3, r2, #3
 249 004a 9B1A     		subs	r3, r3, r2
 250 004c 9B00     		lsls	r3, r3, #2
 251 004e 2344     		add	r3, r3, r4
 252 0050 0121     		movs	r1, #1
 253 0052 83F83910 		strb	r1, [r3, #57]
 169:Drivers/STM32F4xx_HAL_Driver/Src/stm32f4xx_hal_pcd.c ****    hpcd->IN_ep[i].tx_fifo_num = i;
 254              		.loc 1 169 0 discriminator 3
 255 0056 83F83820 		strb	r2, [r3, #56]
 170:Drivers/STM32F4xx_HAL_Driver/Src/stm32f4xx_hal_pcd.c ****    /* Control until ep is activated */
 256              		.loc 1 170 0 discriminator 3
 257 005a DA87     		strh	r2, [r3, #62]	@ movhi
 172:Drivers/STM32F4xx_HAL_Driver/Src/stm32f4xx_hal_pcd.c ****    hpcd->IN_ep[i].maxpacket = 0U;
 258              		.loc 1 172 0 discriminator 3
 259 005c 0021     		movs	r1, #0
 260 005e 83F83B10 		strb	r1, [r3, #59]
 173:Drivers/STM32F4xx_HAL_Driver/Src/stm32f4xx_hal_pcd.c ****    hpcd->IN_ep[i].xfer_buff = 0U;
 261              		.loc 1 173 0 discriminator 3
 262 0062 1964     		str	r1, [r3, #64]
 174:Drivers/STM32F4xx_HAL_Driver/Src/stm32f4xx_hal_pcd.c ****    hpcd->IN_ep[i].xfer_len = 0U;
 263              		.loc 1 174 0 discriminator 3
 264 0064 5964     		str	r1, [r3, #68]
 175:Drivers/STM32F4xx_HAL_Driver/Src/stm32f4xx_hal_pcd.c ****  }
 265              		.loc 1 175 0 discriminator 3
 266 0066 D964     		str	r1, [r3, #76]
 165:Drivers/STM32F4xx_HAL_Driver/Src/stm32f4xx_hal_pcd.c ****  {
 267              		.loc 1 165 0 discriminator 3
 268 0068 0132     		adds	r2, r2, #1
 269              	.LVL23:
 270              	.L12:
 165:Drivers/STM32F4xx_HAL_Driver/Src/stm32f4xx_hal_pcd.c ****  {
 271              		.loc 1 165 0 is_stmt 0 discriminator 1
 272 006a 0E2A     		cmp	r2, #14
ARM GAS  /tmp/ccUYINNg.s 			page 29


 273 006c ECD9     		bls	.L13
 274 006e 0022     		movs	r2, #0
 275              	.LVL24:
 276 0070 18E0     		b	.L14
 277              	.LVL25:
 278              	.L15:
 180:Drivers/STM32F4xx_HAL_Driver/Src/stm32f4xx_hal_pcd.c ****    hpcd->OUT_ep[i].num = i;
 279              		.loc 1 180 0 is_stmt 1 discriminator 3
 280 0072 D300     		lsls	r3, r2, #3
 281 0074 9B1A     		subs	r3, r3, r2
 282 0076 9B00     		lsls	r3, r3, #2
 283 0078 2344     		add	r3, r3, r4
 284 007a 0021     		movs	r1, #0
 285 007c 83F8F911 		strb	r1, [r3, #505]
 181:Drivers/STM32F4xx_HAL_Driver/Src/stm32f4xx_hal_pcd.c ****    hpcd->IN_ep[i].tx_fifo_num = i;
 286              		.loc 1 181 0 discriminator 3
 287 0080 83F8F821 		strb	r2, [r3, #504]
 182:Drivers/STM32F4xx_HAL_Driver/Src/stm32f4xx_hal_pcd.c ****    /* Control until ep is activated */
 288              		.loc 1 182 0 discriminator 3
 289 0084 DA87     		strh	r2, [r3, #62]	@ movhi
 184:Drivers/STM32F4xx_HAL_Driver/Src/stm32f4xx_hal_pcd.c ****    hpcd->OUT_ep[i].maxpacket = 0U;
 290              		.loc 1 184 0 discriminator 3
 291 0086 83F8FB11 		strb	r1, [r3, #507]
 185:Drivers/STM32F4xx_HAL_Driver/Src/stm32f4xx_hal_pcd.c ****    hpcd->OUT_ep[i].xfer_buff = 0U;
 292              		.loc 1 185 0 discriminator 3
 293 008a C3F80012 		str	r1, [r3, #512]
 186:Drivers/STM32F4xx_HAL_Driver/Src/stm32f4xx_hal_pcd.c ****    hpcd->OUT_ep[i].xfer_len = 0U;
 294              		.loc 1 186 0 discriminator 3
 295 008e C3F80412 		str	r1, [r3, #516]
 187:Drivers/STM32F4xx_HAL_Driver/Src/stm32f4xx_hal_pcd.c ****    
 296              		.loc 1 187 0 discriminator 3
 297 0092 C3F80C12 		str	r1, [r3, #524]
 189:Drivers/STM32F4xx_HAL_Driver/Src/stm32f4xx_hal_pcd.c ****  }
 298              		.loc 1 189 0 discriminator 3
 299 0096 2368     		ldr	r3, [r4]
 300 0098 02F14000 		add	r0, r2, #64
 301 009c 03EB8003 		add	r3, r3, r0, lsl #2
 302 00a0 5960     		str	r1, [r3, #4]
 178:Drivers/STM32F4xx_HAL_Driver/Src/stm32f4xx_hal_pcd.c ****  {
 303              		.loc 1 178 0 discriminator 3
 304 00a2 0132     		adds	r2, r2, #1
 305              	.LVL26:
 306              	.L14:
 178:Drivers/STM32F4xx_HAL_Driver/Src/stm32f4xx_hal_pcd.c ****  {
 307              		.loc 1 178 0 is_stmt 0 discriminator 1
 308 00a4 0E2A     		cmp	r2, #14
 309 00a6 E4D9     		bls	.L15
 193:Drivers/STM32F4xx_HAL_Driver/Src/stm32f4xx_hal_pcd.c ****  
 310              		.loc 1 193 0 is_stmt 1
 311 00a8 2546     		mov	r5, r4
 312 00aa 55F8107B 		ldr	r7, [r5], #16
 313 00ae 6E46     		mov	r6, sp
 314 00b0 0FCD     		ldmia	r5!, {r0, r1, r2, r3}
 315              	.LVL27:
 316 00b2 0FC6     		stmia	r6!, {r0, r1, r2, r3}
 317 00b4 0FCD     		ldmia	r5!, {r0, r1, r2, r3}
 318 00b6 0FC6     		stmia	r6!, {r0, r1, r2, r3}
ARM GAS  /tmp/ccUYINNg.s 			page 30


 319 00b8 95E80300 		ldmia	r5, {r0, r1}
 320 00bc 86E80300 		stmia	r6, {r0, r1}
 321 00c0 231D     		adds	r3, r4, #4
 322 00c2 0ECB     		ldmia	r3, {r1, r2, r3}
 323 00c4 3846     		mov	r0, r7
 324 00c6 FFF7FEFF 		bl	USB_DevInit
 325              	.LVL28:
 195:Drivers/STM32F4xx_HAL_Driver/Src/stm32f4xx_hal_pcd.c ****  
 326              		.loc 1 195 0
 327 00ca 0123     		movs	r3, #1
 328 00cc 84F8B933 		strb	r3, [r4, #953]
 213:Drivers/STM32F4xx_HAL_Driver/Src/stm32f4xx_hal_pcd.c ****  return HAL_OK;
 329              		.loc 1 213 0
 330 00d0 2068     		ldr	r0, [r4]
 331 00d2 FFF7FEFF 		bl	USB_DevDisconnect
 332              	.LVL29:
 214:Drivers/STM32F4xx_HAL_Driver/Src/stm32f4xx_hal_pcd.c **** }
 333              		.loc 1 214 0
 334 00d6 0020     		movs	r0, #0
 335 00d8 01E0     		b	.L11
 336              	.LVL30:
 337              	.L16:
 338              	.LCFI5:
 339              		.cfi_def_cfa_offset 0
 340              		.cfi_restore 4
 341              		.cfi_restore 5
 342              		.cfi_restore 6
 343              		.cfi_restore 7
 344              		.cfi_restore 14
 144:Drivers/STM32F4xx_HAL_Driver/Src/stm32f4xx_hal_pcd.c ****   }
 345              		.loc 1 144 0
 346 00da 0120     		movs	r0, #1
 347              	.LVL31:
 348 00dc 7047     		bx	lr
 349              	.LVL32:
 350              	.L11:
 351              	.LCFI6:
 352              		.cfi_def_cfa_offset 64
 353              		.cfi_offset 4, -20
 354              		.cfi_offset 5, -16
 355              		.cfi_offset 6, -12
 356              		.cfi_offset 7, -8
 357              		.cfi_offset 14, -4
 215:Drivers/STM32F4xx_HAL_Driver/Src/stm32f4xx_hal_pcd.c **** 
 358              		.loc 1 215 0
 359 00de 0BB0     		add	sp, sp, #44
 360              	.LCFI7:
 361              		.cfi_def_cfa_offset 20
 362              		@ sp needed
 363 00e0 F0BD     		pop	{r4, r5, r6, r7, pc}
 364              		.cfi_endproc
 365              	.LFE123:
 367 00e2 00BF     		.section	.text.HAL_PCD_MspDeInit,"ax",%progbits
 368              		.align	2
 369              		.weak	HAL_PCD_MspDeInit
 370              		.thumb
 371              		.thumb_func
ARM GAS  /tmp/ccUYINNg.s 			page 31


 373              	HAL_PCD_MspDeInit:
 374              	.LFB126:
 263:Drivers/STM32F4xx_HAL_Driver/Src/stm32f4xx_hal_pcd.c ****   /* Prevent unused argument(s) compilation warning */
 375              		.loc 1 263 0
 376              		.cfi_startproc
 377              		@ args = 0, pretend = 0, frame = 0
 378              		@ frame_needed = 0, uses_anonymous_args = 0
 379              		@ link register save eliminated.
 380              	.LVL33:
 381 0000 7047     		bx	lr
 382              		.cfi_endproc
 383              	.LFE126:
 385 0002 00BF     		.section	.text.HAL_PCD_Start,"ax",%progbits
 386              		.align	2
 387              		.global	HAL_PCD_Start
 388              		.thumb
 389              		.thumb_func
 391              	HAL_PCD_Start:
 392              	.LFB127:
 296:Drivers/STM32F4xx_HAL_Driver/Src/stm32f4xx_hal_pcd.c ****   __HAL_LOCK(hpcd); 
 393              		.loc 1 296 0
 394              		.cfi_startproc
 395              		@ args = 0, pretend = 0, frame = 0
 396              		@ frame_needed = 0, uses_anonymous_args = 0
 397              	.LVL34:
 297:Drivers/STM32F4xx_HAL_Driver/Src/stm32f4xx_hal_pcd.c ****   USB_DevConnect (hpcd->Instance);  
 398              		.loc 1 297 0
 399 0000 90F8B833 		ldrb	r3, [r0, #952]	@ zero_extendqisi2
 400 0004 012B     		cmp	r3, #1
 401 0006 0ED0     		beq	.L22
 296:Drivers/STM32F4xx_HAL_Driver/Src/stm32f4xx_hal_pcd.c ****   __HAL_LOCK(hpcd); 
 402              		.loc 1 296 0 discriminator 2
 403 0008 10B5     		push	{r4, lr}
 404              	.LCFI8:
 405              		.cfi_def_cfa_offset 8
 406              		.cfi_offset 4, -8
 407              		.cfi_offset 14, -4
 408 000a 0446     		mov	r4, r0
 297:Drivers/STM32F4xx_HAL_Driver/Src/stm32f4xx_hal_pcd.c ****   USB_DevConnect (hpcd->Instance);  
 409              		.loc 1 297 0 discriminator 2
 410 000c 0123     		movs	r3, #1
 411 000e 80F8B833 		strb	r3, [r0, #952]
 298:Drivers/STM32F4xx_HAL_Driver/Src/stm32f4xx_hal_pcd.c ****   __HAL_PCD_ENABLE(hpcd);
 412              		.loc 1 298 0 discriminator 2
 413 0012 0068     		ldr	r0, [r0]
 414              	.LVL35:
 415 0014 FFF7FEFF 		bl	USB_DevConnect
 416              	.LVL36:
 299:Drivers/STM32F4xx_HAL_Driver/Src/stm32f4xx_hal_pcd.c ****   __HAL_UNLOCK(hpcd); 
 417              		.loc 1 299 0 discriminator 2
 418 0018 2068     		ldr	r0, [r4]
 419 001a FFF7FEFF 		bl	USB_EnableGlobalInt
 420              	.LVL37:
 300:Drivers/STM32F4xx_HAL_Driver/Src/stm32f4xx_hal_pcd.c ****   return HAL_OK;
 421              		.loc 1 300 0 discriminator 2
 422 001e 0020     		movs	r0, #0
 423 0020 84F8B803 		strb	r0, [r4, #952]
ARM GAS  /tmp/ccUYINNg.s 			page 32


 301:Drivers/STM32F4xx_HAL_Driver/Src/stm32f4xx_hal_pcd.c **** }
 424              		.loc 1 301 0 discriminator 2
 425 0024 10BD     		pop	{r4, pc}
 426              	.LVL38:
 427              	.L22:
 428              	.LCFI9:
 429              		.cfi_def_cfa_offset 0
 430              		.cfi_restore 4
 431              		.cfi_restore 14
 297:Drivers/STM32F4xx_HAL_Driver/Src/stm32f4xx_hal_pcd.c ****   USB_DevConnect (hpcd->Instance);  
 432              		.loc 1 297 0
 433 0026 0220     		movs	r0, #2
 434              	.LVL39:
 435 0028 7047     		bx	lr
 436              		.cfi_endproc
 437              	.LFE127:
 439 002a 00BF     		.section	.text.HAL_PCD_Stop,"ax",%progbits
 440              		.align	2
 441              		.global	HAL_PCD_Stop
 442              		.thumb
 443              		.thumb_func
 445              	HAL_PCD_Stop:
 446              	.LFB128:
 310:Drivers/STM32F4xx_HAL_Driver/Src/stm32f4xx_hal_pcd.c ****   __HAL_LOCK(hpcd); 
 447              		.loc 1 310 0
 448              		.cfi_startproc
 449              		@ args = 0, pretend = 0, frame = 0
 450              		@ frame_needed = 0, uses_anonymous_args = 0
 451              	.LVL40:
 311:Drivers/STM32F4xx_HAL_Driver/Src/stm32f4xx_hal_pcd.c ****   __HAL_PCD_DISABLE(hpcd);
 452              		.loc 1 311 0
 453 0000 90F8B833 		ldrb	r3, [r0, #952]	@ zero_extendqisi2
 454 0004 012B     		cmp	r3, #1
 455 0006 11D0     		beq	.L27
 310:Drivers/STM32F4xx_HAL_Driver/Src/stm32f4xx_hal_pcd.c ****   __HAL_LOCK(hpcd); 
 456              		.loc 1 310 0 discriminator 2
 457 0008 10B5     		push	{r4, lr}
 458              	.LCFI10:
 459              		.cfi_def_cfa_offset 8
 460              		.cfi_offset 4, -8
 461              		.cfi_offset 14, -4
 462 000a 0446     		mov	r4, r0
 311:Drivers/STM32F4xx_HAL_Driver/Src/stm32f4xx_hal_pcd.c ****   __HAL_PCD_DISABLE(hpcd);
 463              		.loc 1 311 0 discriminator 2
 464 000c 0123     		movs	r3, #1
 465 000e 80F8B833 		strb	r3, [r0, #952]
 312:Drivers/STM32F4xx_HAL_Driver/Src/stm32f4xx_hal_pcd.c ****   USB_StopDevice(hpcd->Instance);
 466              		.loc 1 312 0 discriminator 2
 467 0012 0068     		ldr	r0, [r0]
 468              	.LVL41:
 469 0014 FFF7FEFF 		bl	USB_DisableGlobalInt
 470              	.LVL42:
 313:Drivers/STM32F4xx_HAL_Driver/Src/stm32f4xx_hal_pcd.c ****   USB_DevDisconnect(hpcd->Instance);
 471              		.loc 1 313 0 discriminator 2
 472 0018 2068     		ldr	r0, [r4]
 473 001a FFF7FEFF 		bl	USB_StopDevice
 474              	.LVL43:
ARM GAS  /tmp/ccUYINNg.s 			page 33


 314:Drivers/STM32F4xx_HAL_Driver/Src/stm32f4xx_hal_pcd.c ****   __HAL_UNLOCK(hpcd); 
 475              		.loc 1 314 0 discriminator 2
 476 001e 2068     		ldr	r0, [r4]
 477 0020 FFF7FEFF 		bl	USB_DevDisconnect
 478              	.LVL44:
 315:Drivers/STM32F4xx_HAL_Driver/Src/stm32f4xx_hal_pcd.c ****   return HAL_OK;
 479              		.loc 1 315 0 discriminator 2
 480 0024 0020     		movs	r0, #0
 481 0026 84F8B803 		strb	r0, [r4, #952]
 316:Drivers/STM32F4xx_HAL_Driver/Src/stm32f4xx_hal_pcd.c **** }
 482              		.loc 1 316 0 discriminator 2
 483 002a 10BD     		pop	{r4, pc}
 484              	.LVL45:
 485              	.L27:
 486              	.LCFI11:
 487              		.cfi_def_cfa_offset 0
 488              		.cfi_restore 4
 489              		.cfi_restore 14
 311:Drivers/STM32F4xx_HAL_Driver/Src/stm32f4xx_hal_pcd.c ****   __HAL_PCD_DISABLE(hpcd);
 490              		.loc 1 311 0
 491 002c 0220     		movs	r0, #2
 492              	.LVL46:
 493 002e 7047     		bx	lr
 494              		.cfi_endproc
 495              	.LFE128:
 497              		.section	.text.HAL_PCD_DeInit,"ax",%progbits
 498              		.align	2
 499              		.global	HAL_PCD_DeInit
 500              		.thumb
 501              		.thumb_func
 503              	HAL_PCD_DeInit:
 504              	.LFB124:
 223:Drivers/STM32F4xx_HAL_Driver/Src/stm32f4xx_hal_pcd.c ****   /* Check the PCD handle allocation */
 505              		.loc 1 223 0
 506              		.cfi_startproc
 507              		@ args = 0, pretend = 0, frame = 0
 508              		@ frame_needed = 0, uses_anonymous_args = 0
 509              	.LVL47:
 225:Drivers/STM32F4xx_HAL_Driver/Src/stm32f4xx_hal_pcd.c ****   {
 510              		.loc 1 225 0
 511 0000 68B1     		cbz	r0, .L32
 223:Drivers/STM32F4xx_HAL_Driver/Src/stm32f4xx_hal_pcd.c ****   /* Check the PCD handle allocation */
 512              		.loc 1 223 0
 513 0002 10B5     		push	{r4, lr}
 514              	.LCFI12:
 515              		.cfi_def_cfa_offset 8
 516              		.cfi_offset 4, -8
 517              		.cfi_offset 14, -4
 518 0004 0446     		mov	r4, r0
 230:Drivers/STM32F4xx_HAL_Driver/Src/stm32f4xx_hal_pcd.c ****   
 519              		.loc 1 230 0
 520 0006 0323     		movs	r3, #3
 521 0008 80F8B933 		strb	r3, [r0, #953]
 233:Drivers/STM32F4xx_HAL_Driver/Src/stm32f4xx_hal_pcd.c ****     
 522              		.loc 1 233 0
 523 000c FFF7FEFF 		bl	HAL_PCD_Stop
 524              	.LVL48:
ARM GAS  /tmp/ccUYINNg.s 			page 34


 236:Drivers/STM32F4xx_HAL_Driver/Src/stm32f4xx_hal_pcd.c ****   
 525              		.loc 1 236 0
 526 0010 2046     		mov	r0, r4
 527 0012 FFF7FEFF 		bl	HAL_PCD_MspDeInit
 528              	.LVL49:
 238:Drivers/STM32F4xx_HAL_Driver/Src/stm32f4xx_hal_pcd.c ****   
 529              		.loc 1 238 0
 530 0016 0020     		movs	r0, #0
 531 0018 84F8B903 		strb	r0, [r4, #953]
 240:Drivers/STM32F4xx_HAL_Driver/Src/stm32f4xx_hal_pcd.c **** }
 532              		.loc 1 240 0
 533 001c 10BD     		pop	{r4, pc}
 534              	.LVL50:
 535              	.L32:
 536              	.LCFI13:
 537              		.cfi_def_cfa_offset 0
 538              		.cfi_restore 4
 539              		.cfi_restore 14
 227:Drivers/STM32F4xx_HAL_Driver/Src/stm32f4xx_hal_pcd.c ****   }
 540              		.loc 1 227 0
 541 001e 0120     		movs	r0, #1
 542              	.LVL51:
 543 0020 7047     		bx	lr
 544              		.cfi_endproc
 545              	.LFE124:
 547 0022 00BF     		.section	.text.HAL_PCD_DataOutStageCallback,"ax",%progbits
 548              		.align	2
 549              		.weak	HAL_PCD_DataOutStageCallback
 550              		.thumb
 551              		.thumb_func
 553              	HAL_PCD_DataOutStageCallback:
 554              	.LFB130:
 723:Drivers/STM32F4xx_HAL_Driver/Src/stm32f4xx_hal_pcd.c ****   /* Prevent unused argument(s) compilation warning */
 555              		.loc 1 723 0
 556              		.cfi_startproc
 557              		@ args = 0, pretend = 0, frame = 0
 558              		@ frame_needed = 0, uses_anonymous_args = 0
 559              		@ link register save eliminated.
 560              	.LVL52:
 561 0000 7047     		bx	lr
 562              		.cfi_endproc
 563              	.LFE130:
 565 0002 00BF     		.section	.text.HAL_PCD_DataInStageCallback,"ax",%progbits
 566              		.align	2
 567              		.weak	HAL_PCD_DataInStageCallback
 568              		.thumb
 569              		.thumb_func
 571              	HAL_PCD_DataInStageCallback:
 572              	.LFB131:
 739:Drivers/STM32F4xx_HAL_Driver/Src/stm32f4xx_hal_pcd.c ****   /* Prevent unused argument(s) compilation warning */
 573              		.loc 1 739 0
 574              		.cfi_startproc
 575              		@ args = 0, pretend = 0, frame = 0
 576              		@ frame_needed = 0, uses_anonymous_args = 0
 577              		@ link register save eliminated.
 578              	.LVL53:
 579 0000 7047     		bx	lr
ARM GAS  /tmp/ccUYINNg.s 			page 35


 580              		.cfi_endproc
 581              	.LFE131:
 583 0002 00BF     		.section	.text.HAL_PCD_SetupStageCallback,"ax",%progbits
 584              		.align	2
 585              		.weak	HAL_PCD_SetupStageCallback
 586              		.thumb
 587              		.thumb_func
 589              	HAL_PCD_SetupStageCallback:
 590              	.LFB132:
 753:Drivers/STM32F4xx_HAL_Driver/Src/stm32f4xx_hal_pcd.c ****   /* Prevent unused argument(s) compilation warning */
 591              		.loc 1 753 0
 592              		.cfi_startproc
 593              		@ args = 0, pretend = 0, frame = 0
 594              		@ frame_needed = 0, uses_anonymous_args = 0
 595              		@ link register save eliminated.
 596              	.LVL54:
 597 0000 7047     		bx	lr
 598              		.cfi_endproc
 599              	.LFE132:
 601 0002 00BF     		.section	.text.HAL_PCD_SOFCallback,"ax",%progbits
 602              		.align	2
 603              		.weak	HAL_PCD_SOFCallback
 604              		.thumb
 605              		.thumb_func
 607              	HAL_PCD_SOFCallback:
 608              	.LFB133:
 767:Drivers/STM32F4xx_HAL_Driver/Src/stm32f4xx_hal_pcd.c ****   /* Prevent unused argument(s) compilation warning */
 609              		.loc 1 767 0
 610              		.cfi_startproc
 611              		@ args = 0, pretend = 0, frame = 0
 612              		@ frame_needed = 0, uses_anonymous_args = 0
 613              		@ link register save eliminated.
 614              	.LVL55:
 615 0000 7047     		bx	lr
 616              		.cfi_endproc
 617              	.LFE133:
 619 0002 00BF     		.section	.text.HAL_PCD_ResetCallback,"ax",%progbits
 620              		.align	2
 621              		.weak	HAL_PCD_ResetCallback
 622              		.thumb
 623              		.thumb_func
 625              	HAL_PCD_ResetCallback:
 626              	.LFB134:
 781:Drivers/STM32F4xx_HAL_Driver/Src/stm32f4xx_hal_pcd.c ****   /* Prevent unused argument(s) compilation warning */
 627              		.loc 1 781 0
 628              		.cfi_startproc
 629              		@ args = 0, pretend = 0, frame = 0
 630              		@ frame_needed = 0, uses_anonymous_args = 0
 631              		@ link register save eliminated.
 632              	.LVL56:
 633 0000 7047     		bx	lr
 634              		.cfi_endproc
 635              	.LFE134:
 637 0002 00BF     		.section	.text.HAL_PCD_SuspendCallback,"ax",%progbits
 638              		.align	2
 639              		.weak	HAL_PCD_SuspendCallback
 640              		.thumb
ARM GAS  /tmp/ccUYINNg.s 			page 36


 641              		.thumb_func
 643              	HAL_PCD_SuspendCallback:
 644              	.LFB135:
 795:Drivers/STM32F4xx_HAL_Driver/Src/stm32f4xx_hal_pcd.c ****   /* Prevent unused argument(s) compilation warning */
 645              		.loc 1 795 0
 646              		.cfi_startproc
 647              		@ args = 0, pretend = 0, frame = 0
 648              		@ frame_needed = 0, uses_anonymous_args = 0
 649              		@ link register save eliminated.
 650              	.LVL57:
 651 0000 7047     		bx	lr
 652              		.cfi_endproc
 653              	.LFE135:
 655 0002 00BF     		.section	.text.HAL_PCD_ResumeCallback,"ax",%progbits
 656              		.align	2
 657              		.weak	HAL_PCD_ResumeCallback
 658              		.thumb
 659              		.thumb_func
 661              	HAL_PCD_ResumeCallback:
 662              	.LFB136:
 809:Drivers/STM32F4xx_HAL_Driver/Src/stm32f4xx_hal_pcd.c ****   /* Prevent unused argument(s) compilation warning */
 663              		.loc 1 809 0
 664              		.cfi_startproc
 665              		@ args = 0, pretend = 0, frame = 0
 666              		@ frame_needed = 0, uses_anonymous_args = 0
 667              		@ link register save eliminated.
 668              	.LVL58:
 669 0000 7047     		bx	lr
 670              		.cfi_endproc
 671              	.LFE136:
 673 0002 00BF     		.section	.text.HAL_PCD_ISOOUTIncompleteCallback,"ax",%progbits
 674              		.align	2
 675              		.weak	HAL_PCD_ISOOUTIncompleteCallback
 676              		.thumb
 677              		.thumb_func
 679              	HAL_PCD_ISOOUTIncompleteCallback:
 680              	.LFB137:
 824:Drivers/STM32F4xx_HAL_Driver/Src/stm32f4xx_hal_pcd.c ****   /* Prevent unused argument(s) compilation warning */
 681              		.loc 1 824 0
 682              		.cfi_startproc
 683              		@ args = 0, pretend = 0, frame = 0
 684              		@ frame_needed = 0, uses_anonymous_args = 0
 685              		@ link register save eliminated.
 686              	.LVL59:
 687 0000 7047     		bx	lr
 688              		.cfi_endproc
 689              	.LFE137:
 691 0002 00BF     		.section	.text.HAL_PCD_ISOINIncompleteCallback,"ax",%progbits
 692              		.align	2
 693              		.weak	HAL_PCD_ISOINIncompleteCallback
 694              		.thumb
 695              		.thumb_func
 697              	HAL_PCD_ISOINIncompleteCallback:
 698              	.LFB138:
 840:Drivers/STM32F4xx_HAL_Driver/Src/stm32f4xx_hal_pcd.c ****   /* Prevent unused argument(s) compilation warning */
 699              		.loc 1 840 0
 700              		.cfi_startproc
ARM GAS  /tmp/ccUYINNg.s 			page 37


 701              		@ args = 0, pretend = 0, frame = 0
 702              		@ frame_needed = 0, uses_anonymous_args = 0
 703              		@ link register save eliminated.
 704              	.LVL60:
 705 0000 7047     		bx	lr
 706              		.cfi_endproc
 707              	.LFE138:
 709 0002 00BF     		.section	.text.HAL_PCD_ConnectCallback,"ax",%progbits
 710              		.align	2
 711              		.weak	HAL_PCD_ConnectCallback
 712              		.thumb
 713              		.thumb_func
 715              	HAL_PCD_ConnectCallback:
 716              	.LFB139:
 855:Drivers/STM32F4xx_HAL_Driver/Src/stm32f4xx_hal_pcd.c ****   /* Prevent unused argument(s) compilation warning */
 717              		.loc 1 855 0
 718              		.cfi_startproc
 719              		@ args = 0, pretend = 0, frame = 0
 720              		@ frame_needed = 0, uses_anonymous_args = 0
 721              		@ link register save eliminated.
 722              	.LVL61:
 723 0000 7047     		bx	lr
 724              		.cfi_endproc
 725              	.LFE139:
 727 0002 00BF     		.section	.text.HAL_PCD_DisconnectCallback,"ax",%progbits
 728              		.align	2
 729              		.weak	HAL_PCD_DisconnectCallback
 730              		.thumb
 731              		.thumb_func
 733              	HAL_PCD_DisconnectCallback:
 734              	.LFB140:
 869:Drivers/STM32F4xx_HAL_Driver/Src/stm32f4xx_hal_pcd.c ****   /* Prevent unused argument(s) compilation warning */
 735              		.loc 1 869 0
 736              		.cfi_startproc
 737              		@ args = 0, pretend = 0, frame = 0
 738              		@ frame_needed = 0, uses_anonymous_args = 0
 739              		@ link register save eliminated.
 740              	.LVL62:
 741 0000 7047     		bx	lr
 742              		.cfi_endproc
 743              	.LFE140:
 745 0002 00BF     		.section	.text.HAL_PCD_IRQHandler,"ax",%progbits
 746              		.align	2
 747              		.global	HAL_PCD_IRQHandler
 748              		.thumb
 749              		.thumb_func
 751              	HAL_PCD_IRQHandler:
 752              	.LFB129:
 325:Drivers/STM32F4xx_HAL_Driver/Src/stm32f4xx_hal_pcd.c ****   USB_OTG_GlobalTypeDef *USBx = hpcd->Instance;
 753              		.loc 1 325 0
 754              		.cfi_startproc
 755              		@ args = 0, pretend = 0, frame = 0
 756              		@ frame_needed = 0, uses_anonymous_args = 0
 757              	.LVL63:
 325:Drivers/STM32F4xx_HAL_Driver/Src/stm32f4xx_hal_pcd.c ****   USB_OTG_GlobalTypeDef *USBx = hpcd->Instance;
 758              		.loc 1 325 0
 759 0000 2DE9F84F 		push	{r3, r4, r5, r6, r7, r8, r9, r10, fp, lr}
ARM GAS  /tmp/ccUYINNg.s 			page 38


 760              	.LCFI14:
 761              		.cfi_def_cfa_offset 40
 762              		.cfi_offset 3, -40
 763              		.cfi_offset 4, -36
 764              		.cfi_offset 5, -32
 765              		.cfi_offset 6, -28
 766              		.cfi_offset 7, -24
 767              		.cfi_offset 8, -20
 768              		.cfi_offset 9, -16
 769              		.cfi_offset 10, -12
 770              		.cfi_offset 11, -8
 771              		.cfi_offset 14, -4
 772 0004 0446     		mov	r4, r0
 326:Drivers/STM32F4xx_HAL_Driver/Src/stm32f4xx_hal_pcd.c ****   uint32_t i = 0U, ep_intr = 0U, epint = 0U, epnum = 0U;
 773              		.loc 1 326 0
 774 0006 0668     		ldr	r6, [r0]
 775              	.LVL64:
 333:Drivers/STM32F4xx_HAL_Driver/Src/stm32f4xx_hal_pcd.c ****   {    
 776              		.loc 1 333 0
 777 0008 3046     		mov	r0, r6
 778              	.LVL65:
 779 000a FFF7FEFF 		bl	USB_GetMode
 780              	.LVL66:
 781 000e 0028     		cmp	r0, #0
 782 0010 40F09282 		bne	.L46
 336:Drivers/STM32F4xx_HAL_Driver/Src/stm32f4xx_hal_pcd.c ****     {
 783              		.loc 1 336 0
 784 0014 2068     		ldr	r0, [r4]
 785 0016 FFF7FEFF 		bl	USB_ReadInterrupts
 786              	.LVL67:
 787 001a 0028     		cmp	r0, #0
 788 001c 00F08C82 		beq	.L46
 341:Drivers/STM32F4xx_HAL_Driver/Src/stm32f4xx_hal_pcd.c ****     {
 789              		.loc 1 341 0
 790 0020 2068     		ldr	r0, [r4]
 791 0022 FFF7FEFF 		bl	USB_ReadInterrupts
 792              	.LVL68:
 793 0026 10F0020F 		tst	r0, #2
 794 002a 04D0     		beq	.L48
 344:Drivers/STM32F4xx_HAL_Driver/Src/stm32f4xx_hal_pcd.c ****     }
 795              		.loc 1 344 0
 796 002c 2268     		ldr	r2, [r4]
 797 002e 5369     		ldr	r3, [r2, #20]
 798 0030 03F00203 		and	r3, r3, #2
 799 0034 5361     		str	r3, [r2, #20]
 800              	.L48:
 347:Drivers/STM32F4xx_HAL_Driver/Src/stm32f4xx_hal_pcd.c ****     {
 801              		.loc 1 347 0
 802 0036 2068     		ldr	r0, [r4]
 803 0038 FFF7FEFF 		bl	USB_ReadInterrupts
 804              	.LVL69:
 805 003c 10F4002F 		tst	r0, #524288
 806 0040 5CD0     		beq	.L94
 352:Drivers/STM32F4xx_HAL_Driver/Src/stm32f4xx_hal_pcd.c ****       
 807              		.loc 1 352 0
 808 0042 2068     		ldr	r0, [r4]
 809 0044 FFF7FEFF 		bl	USB_ReadDevAllOutEpInterrupt
ARM GAS  /tmp/ccUYINNg.s 			page 39


 810              	.LVL70:
 811 0048 0746     		mov	r7, r0
 812              	.LVL71:
 349:Drivers/STM32F4xx_HAL_Driver/Src/stm32f4xx_hal_pcd.c ****       
 813              		.loc 1 349 0
 814 004a 0025     		movs	r5, #0
 354:Drivers/STM32F4xx_HAL_Driver/Src/stm32f4xx_hal_pcd.c ****       {
 815              		.loc 1 354 0
 816 004c 53E0     		b	.L50
 817              	.LVL72:
 818              	.L55:
 356:Drivers/STM32F4xx_HAL_Driver/Src/stm32f4xx_hal_pcd.c ****         {
 819              		.loc 1 356 0
 820 004e 17F0010F 		tst	r7, #1
 821 0052 4ED0     		beq	.L51
 358:Drivers/STM32F4xx_HAL_Driver/Src/stm32f4xx_hal_pcd.c ****           
 822              		.loc 1 358 0
 823 0054 5FFA85F9 		uxtb	r9, r5
 824 0058 2068     		ldr	r0, [r4]
 825 005a 4946     		mov	r1, r9
 826 005c FFF7FEFF 		bl	USB_ReadDevOutEPInterrupt
 827              	.LVL73:
 828 0060 8046     		mov	r8, r0
 829              	.LVL74:
 360:Drivers/STM32F4xx_HAL_Driver/Src/stm32f4xx_hal_pcd.c ****           {
 830              		.loc 1 360 0
 831 0062 10F0010F 		tst	r0, #1
 832 0066 31D0     		beq	.L52
 362:Drivers/STM32F4xx_HAL_Driver/Src/stm32f4xx_hal_pcd.c ****             
 833              		.loc 1 362 0
 834 0068 06EB4513 		add	r3, r6, r5, lsl #5
 835 006c 0122     		movs	r2, #1
 836 006e C3F8082B 		str	r2, [r3, #2824]
 837 0072 03F53063 		add	r3, r3, #2816
 364:Drivers/STM32F4xx_HAL_Driver/Src/stm32f4xx_hal_pcd.c ****             {
 838              		.loc 1 364 0
 839 0076 2269     		ldr	r2, [r4, #16]
 840 0078 012A     		cmp	r2, #1
 841 007a 12D1     		bne	.L53
 366:Drivers/STM32F4xx_HAL_Driver/Src/stm32f4xx_hal_pcd.c ****               hpcd->OUT_ep[epnum].xfer_buff += hpcd->OUT_ep[epnum].maxpacket;            
 842              		.loc 1 366 0
 843 007c EA00     		lsls	r2, r5, #3
 844 007e 521B     		subs	r2, r2, r5
 845 0080 9200     		lsls	r2, r2, #2
 846 0082 2244     		add	r2, r2, r4
 847 0084 D2F80012 		ldr	r1, [r2, #512]
 848 0088 1B69     		ldr	r3, [r3, #16]
 849 008a C3F31203 		ubfx	r3, r3, #0, #19
 850 008e C91A     		subs	r1, r1, r3
 851 0090 C2F81012 		str	r1, [r2, #528]
 367:Drivers/STM32F4xx_HAL_Driver/Src/stm32f4xx_hal_pcd.c ****             }
 852              		.loc 1 367 0
 853 0094 D2F80412 		ldr	r1, [r2, #516]
 854 0098 D2F80032 		ldr	r3, [r2, #512]
 855 009c 0B44     		add	r3, r3, r1
 856 009e C2F80432 		str	r3, [r2, #516]
 857              	.L53:
ARM GAS  /tmp/ccUYINNg.s 			page 40


 370:Drivers/STM32F4xx_HAL_Driver/Src/stm32f4xx_hal_pcd.c ****             if(hpcd->Init.dma_enable == 1U)
 858              		.loc 1 370 0
 859 00a2 2046     		mov	r0, r4
 860              	.LVL75:
 861 00a4 4946     		mov	r1, r9
 862 00a6 FFF7FEFF 		bl	HAL_PCD_DataOutStageCallback
 863              	.LVL76:
 371:Drivers/STM32F4xx_HAL_Driver/Src/stm32f4xx_hal_pcd.c ****             {
 864              		.loc 1 371 0
 865 00aa 2369     		ldr	r3, [r4, #16]
 866 00ac 012B     		cmp	r3, #1
 867 00ae 0DD1     		bne	.L52
 373:Drivers/STM32F4xx_HAL_Driver/Src/stm32f4xx_hal_pcd.c ****               {
 868              		.loc 1 373 0
 869 00b0 65B9     		cbnz	r5, .L52
 373:Drivers/STM32F4xx_HAL_Driver/Src/stm32f4xx_hal_pcd.c ****               {
 870              		.loc 1 373 0 is_stmt 0 discriminator 1
 871 00b2 C5EBC503 		rsb	r3, r5, r5, lsl #3
 872 00b6 9B00     		lsls	r3, r3, #2
 873 00b8 2344     		add	r3, r3, r4
 874 00ba D3F80C32 		ldr	r3, [r3, #524]
 875 00be 2BB9     		cbnz	r3, .L52
 376:Drivers/STM32F4xx_HAL_Driver/Src/stm32f4xx_hal_pcd.c ****               }              
 876              		.loc 1 376 0 is_stmt 1
 877 00c0 2068     		ldr	r0, [r4]
 878 00c2 0121     		movs	r1, #1
 879 00c4 04F56F72 		add	r2, r4, #956
 880 00c8 FFF7FEFF 		bl	USB_EP0_OutStart
 881              	.LVL77:
 882              	.L52:
 381:Drivers/STM32F4xx_HAL_Driver/Src/stm32f4xx_hal_pcd.c ****           {
 883              		.loc 1 381 0
 884 00cc 18F0080F 		tst	r8, #8
 885 00d0 07D0     		beq	.L54
 384:Drivers/STM32F4xx_HAL_Driver/Src/stm32f4xx_hal_pcd.c ****             CLEAR_OUT_EP_INTR(epnum, USB_OTG_DOEPINT_STUP);
 886              		.loc 1 384 0
 887 00d2 2046     		mov	r0, r4
 888 00d4 FFF7FEFF 		bl	HAL_PCD_SetupStageCallback
 889              	.LVL78:
 385:Drivers/STM32F4xx_HAL_Driver/Src/stm32f4xx_hal_pcd.c ****           }
 890              		.loc 1 385 0
 891 00d8 06EB4513 		add	r3, r6, r5, lsl #5
 892 00dc 0822     		movs	r2, #8
 893 00de C3F8082B 		str	r2, [r3, #2824]
 894              	.L54:
 388:Drivers/STM32F4xx_HAL_Driver/Src/stm32f4xx_hal_pcd.c ****           {
 895              		.loc 1 388 0
 896 00e2 18F0100F 		tst	r8, #16
 897 00e6 04D0     		beq	.L51
 390:Drivers/STM32F4xx_HAL_Driver/Src/stm32f4xx_hal_pcd.c ****           }
 898              		.loc 1 390 0
 899 00e8 06EB4513 		add	r3, r6, r5, lsl #5
 900 00ec 1022     		movs	r2, #16
 901 00ee C3F8082B 		str	r2, [r3, #2824]
 902              	.LVL79:
 903              	.L51:
 401:Drivers/STM32F4xx_HAL_Driver/Src/stm32f4xx_hal_pcd.c ****         ep_intr >>= 1U;
ARM GAS  /tmp/ccUYINNg.s 			page 41


 904              		.loc 1 401 0
 905 00f2 0135     		adds	r5, r5, #1
 906              	.LVL80:
 402:Drivers/STM32F4xx_HAL_Driver/Src/stm32f4xx_hal_pcd.c ****       }
 907              		.loc 1 402 0
 908 00f4 7F08     		lsrs	r7, r7, #1
 909              	.LVL81:
 910              	.L50:
 354:Drivers/STM32F4xx_HAL_Driver/Src/stm32f4xx_hal_pcd.c ****       {
 911              		.loc 1 354 0
 912 00f6 002F     		cmp	r7, #0
 913 00f8 A9D1     		bne	.L55
 914 00fa 00E0     		b	.L49
 915              	.LVL82:
 916              	.L94:
 327:Drivers/STM32F4xx_HAL_Driver/Src/stm32f4xx_hal_pcd.c ****   uint32_t fifoemptymsk = 0U, temp = 0U;
 917              		.loc 1 327 0
 918 00fc 0025     		movs	r5, #0
 919              	.LVL83:
 920              	.L49:
 406:Drivers/STM32F4xx_HAL_Driver/Src/stm32f4xx_hal_pcd.c ****     {
 921              		.loc 1 406 0
 922 00fe 2068     		ldr	r0, [r4]
 923 0100 FFF7FEFF 		bl	USB_ReadInterrupts
 924              	.LVL84:
 925 0104 10F4802F 		tst	r0, #262144
 926 0108 6BD0     		beq	.L56
 409:Drivers/STM32F4xx_HAL_Driver/Src/stm32f4xx_hal_pcd.c ****       
 927              		.loc 1 409 0
 928 010a 2068     		ldr	r0, [r4]
 929 010c FFF7FEFF 		bl	USB_ReadDevAllInEpInterrupt
 930              	.LVL85:
 931 0110 0746     		mov	r7, r0
 932              	.LVL86:
 411:Drivers/STM32F4xx_HAL_Driver/Src/stm32f4xx_hal_pcd.c ****       
 933              		.loc 1 411 0
 934 0112 0025     		movs	r5, #0
 413:Drivers/STM32F4xx_HAL_Driver/Src/stm32f4xx_hal_pcd.c ****       {
 935              		.loc 1 413 0
 936 0114 63E0     		b	.L57
 937              	.LVL87:
 938              	.L65:
 415:Drivers/STM32F4xx_HAL_Driver/Src/stm32f4xx_hal_pcd.c ****         {
 939              		.loc 1 415 0
 940 0116 17F0010F 		tst	r7, #1
 941 011a 5ED0     		beq	.L58
 417:Drivers/STM32F4xx_HAL_Driver/Src/stm32f4xx_hal_pcd.c **** 
 942              		.loc 1 417 0
 943 011c 5FFA85F9 		uxtb	r9, r5
 944 0120 2068     		ldr	r0, [r4]
 945 0122 4946     		mov	r1, r9
 946 0124 FFF7FEFF 		bl	USB_ReadDevInEPInterrupt
 947              	.LVL88:
 948 0128 8046     		mov	r8, r0
 949              	.LVL89:
 419:Drivers/STM32F4xx_HAL_Driver/Src/stm32f4xx_hal_pcd.c ****           {
 950              		.loc 1 419 0
ARM GAS  /tmp/ccUYINNg.s 			page 42


 951 012a 10F0010F 		tst	r0, #1
 952 012e 2DD0     		beq	.L59
 421:Drivers/STM32F4xx_HAL_Driver/Src/stm32f4xx_hal_pcd.c ****             USBx_DEVICE->DIEPEMPMSK &= ~fifoemptymsk;
 953              		.loc 1 421 0
 954 0130 0122     		movs	r2, #1
 955 0132 02FA05F0 		lsl	r0, r2, r5
 956              	.LVL90:
 422:Drivers/STM32F4xx_HAL_Driver/Src/stm32f4xx_hal_pcd.c ****             
 957              		.loc 1 422 0
 958 0136 D6F83438 		ldr	r3, [r6, #2100]
 959 013a 23EA0003 		bic	r3, r3, r0
 960 013e C6F83438 		str	r3, [r6, #2100]
 424:Drivers/STM32F4xx_HAL_Driver/Src/stm32f4xx_hal_pcd.c ****             
 961              		.loc 1 424 0
 962 0142 06EB4513 		add	r3, r6, r5, lsl #5
 963 0146 C3F80829 		str	r2, [r3, #2312]
 426:Drivers/STM32F4xx_HAL_Driver/Src/stm32f4xx_hal_pcd.c ****             {
 964              		.loc 1 426 0
 965 014a 2369     		ldr	r3, [r4, #16]
 966 014c 9342     		cmp	r3, r2
 967 014e 09D1     		bne	.L60
 428:Drivers/STM32F4xx_HAL_Driver/Src/stm32f4xx_hal_pcd.c ****             }
 968              		.loc 1 428 0
 969 0150 EB00     		lsls	r3, r5, #3
 970 0152 5B1B     		subs	r3, r3, r5
 971 0154 9B00     		lsls	r3, r3, #2
 972 0156 2344     		add	r3, r3, r4
 973 0158 03F14002 		add	r2, r3, #64
 974 015c 596C     		ldr	r1, [r3, #68]
 975 015e 1B6C     		ldr	r3, [r3, #64]
 976 0160 0B44     		add	r3, r3, r1
 977 0162 5360     		str	r3, [r2, #4]
 978              	.L60:
 431:Drivers/STM32F4xx_HAL_Driver/Src/stm32f4xx_hal_pcd.c **** 
 979              		.loc 1 431 0
 980 0164 2046     		mov	r0, r4
 981              	.LVL91:
 982 0166 4946     		mov	r1, r9
 983 0168 FFF7FEFF 		bl	HAL_PCD_DataInStageCallback
 984              	.LVL92:
 433:Drivers/STM32F4xx_HAL_Driver/Src/stm32f4xx_hal_pcd.c ****             {
 985              		.loc 1 433 0
 986 016c 2369     		ldr	r3, [r4, #16]
 987 016e 012B     		cmp	r3, #1
 988 0170 0CD1     		bne	.L59
 436:Drivers/STM32F4xx_HAL_Driver/Src/stm32f4xx_hal_pcd.c ****               {
 989              		.loc 1 436 0
 990 0172 5DB9     		cbnz	r5, .L59
 436:Drivers/STM32F4xx_HAL_Driver/Src/stm32f4xx_hal_pcd.c ****               {
 991              		.loc 1 436 0 is_stmt 0 discriminator 1
 992 0174 C5EBC503 		rsb	r3, r5, r5, lsl #3
 993 0178 9B00     		lsls	r3, r3, #2
 994 017a 2344     		add	r3, r3, r4
 995 017c DB6C     		ldr	r3, [r3, #76]
 996 017e 2BB9     		cbnz	r3, .L59
 439:Drivers/STM32F4xx_HAL_Driver/Src/stm32f4xx_hal_pcd.c ****               }
 997              		.loc 1 439 0 is_stmt 1
ARM GAS  /tmp/ccUYINNg.s 			page 43


 998 0180 2068     		ldr	r0, [r4]
 999 0182 0121     		movs	r1, #1
 1000              	.LVL93:
 1001 0184 04F56F72 		add	r2, r4, #956
 1002 0188 FFF7FEFF 		bl	USB_EP0_OutStart
 1003              	.LVL94:
 1004              	.L59:
 443:Drivers/STM32F4xx_HAL_Driver/Src/stm32f4xx_hal_pcd.c ****           {
 1005              		.loc 1 443 0
 1006 018c 18F0080F 		tst	r8, #8
 1007 0190 04D0     		beq	.L61
 445:Drivers/STM32F4xx_HAL_Driver/Src/stm32f4xx_hal_pcd.c ****           }
 1008              		.loc 1 445 0
 1009 0192 06EB4513 		add	r3, r6, r5, lsl #5
 1010 0196 0822     		movs	r2, #8
 1011 0198 C3F80829 		str	r2, [r3, #2312]
 1012              	.L61:
 447:Drivers/STM32F4xx_HAL_Driver/Src/stm32f4xx_hal_pcd.c ****           {
 1013              		.loc 1 447 0
 1014 019c 18F0100F 		tst	r8, #16
 1015 01a0 04D0     		beq	.L62
 449:Drivers/STM32F4xx_HAL_Driver/Src/stm32f4xx_hal_pcd.c ****           }
 1016              		.loc 1 449 0
 1017 01a2 06EB4513 		add	r3, r6, r5, lsl #5
 1018 01a6 1022     		movs	r2, #16
 1019 01a8 C3F80829 		str	r2, [r3, #2312]
 1020              	.L62:
 451:Drivers/STM32F4xx_HAL_Driver/Src/stm32f4xx_hal_pcd.c ****           {
 1021              		.loc 1 451 0
 1022 01ac 18F0400F 		tst	r8, #64
 1023 01b0 04D0     		beq	.L63
 453:Drivers/STM32F4xx_HAL_Driver/Src/stm32f4xx_hal_pcd.c ****           }
 1024              		.loc 1 453 0
 1025 01b2 06EB4513 		add	r3, r6, r5, lsl #5
 1026 01b6 4022     		movs	r2, #64
 1027 01b8 C3F80829 		str	r2, [r3, #2312]
 1028              	.L63:
 455:Drivers/STM32F4xx_HAL_Driver/Src/stm32f4xx_hal_pcd.c ****           {
 1029              		.loc 1 455 0
 1030 01bc 18F0020F 		tst	r8, #2
 1031 01c0 04D0     		beq	.L64
 457:Drivers/STM32F4xx_HAL_Driver/Src/stm32f4xx_hal_pcd.c ****           }       
 1032              		.loc 1 457 0
 1033 01c2 06EB4513 		add	r3, r6, r5, lsl #5
 1034 01c6 0222     		movs	r2, #2
 1035 01c8 C3F80829 		str	r2, [r3, #2312]
 1036              	.L64:
 459:Drivers/STM32F4xx_HAL_Driver/Src/stm32f4xx_hal_pcd.c ****           {
 1037              		.loc 1 459 0
 1038 01cc 18F0800F 		tst	r8, #128
 1039 01d0 03D0     		beq	.L58
 461:Drivers/STM32F4xx_HAL_Driver/Src/stm32f4xx_hal_pcd.c ****           }
 1040              		.loc 1 461 0
 1041 01d2 2046     		mov	r0, r4
 1042 01d4 2946     		mov	r1, r5
 1043 01d6 FFF7FEFF 		bl	PCD_WriteEmptyTxFifo
 1044              	.LVL95:
ARM GAS  /tmp/ccUYINNg.s 			page 44


 1045              	.L58:
 464:Drivers/STM32F4xx_HAL_Driver/Src/stm32f4xx_hal_pcd.c ****         ep_intr >>= 1U;
 1046              		.loc 1 464 0
 1047 01da 0135     		adds	r5, r5, #1
 1048              	.LVL96:
 465:Drivers/STM32F4xx_HAL_Driver/Src/stm32f4xx_hal_pcd.c ****       }
 1049              		.loc 1 465 0
 1050 01dc 7F08     		lsrs	r7, r7, #1
 1051              	.LVL97:
 1052              	.L57:
 413:Drivers/STM32F4xx_HAL_Driver/Src/stm32f4xx_hal_pcd.c ****       {
 1053              		.loc 1 413 0
 1054 01de 002F     		cmp	r7, #0
 1055 01e0 99D1     		bne	.L65
 1056              	.LVL98:
 1057              	.L56:
 470:Drivers/STM32F4xx_HAL_Driver/Src/stm32f4xx_hal_pcd.c ****     {    
 1058              		.loc 1 470 0
 1059 01e2 2068     		ldr	r0, [r4]
 1060 01e4 FFF7FEFF 		bl	USB_ReadInterrupts
 1061              	.LVL99:
 1062 01e8 0028     		cmp	r0, #0
 1063 01ea 0DDA     		bge	.L66
 473:Drivers/STM32F4xx_HAL_Driver/Src/stm32f4xx_hal_pcd.c **** 
 1064              		.loc 1 473 0
 1065 01ec D6F80438 		ldr	r3, [r6, #2052]
 1066 01f0 23F00103 		bic	r3, r3, #1
 1067 01f4 C6F80438 		str	r3, [r6, #2052]
 484:Drivers/STM32F4xx_HAL_Driver/Src/stm32f4xx_hal_pcd.c ****       }
 1068              		.loc 1 484 0
 1069 01f8 2046     		mov	r0, r4
 1070 01fa FFF7FEFF 		bl	HAL_PCD_ResumeCallback
 1071              	.LVL100:
 487:Drivers/STM32F4xx_HAL_Driver/Src/stm32f4xx_hal_pcd.c ****     }
 1072              		.loc 1 487 0
 1073 01fe 2268     		ldr	r2, [r4]
 1074 0200 5369     		ldr	r3, [r2, #20]
 1075 0202 03F00043 		and	r3, r3, #-2147483648
 1076 0206 5361     		str	r3, [r2, #20]
 1077              	.L66:
 491:Drivers/STM32F4xx_HAL_Driver/Src/stm32f4xx_hal_pcd.c ****     {
 1078              		.loc 1 491 0
 1079 0208 2068     		ldr	r0, [r4]
 1080 020a FFF7FEFF 		bl	USB_ReadInterrupts
 1081              	.LVL101:
 1082 020e 10F4006F 		tst	r0, #2048
 1083 0212 0CD0     		beq	.L67
 493:Drivers/STM32F4xx_HAL_Driver/Src/stm32f4xx_hal_pcd.c ****       {
 1084              		.loc 1 493 0
 1085 0214 D6F80838 		ldr	r3, [r6, #2056]
 1086 0218 13F0010F 		tst	r3, #1
 1087 021c 02D0     		beq	.L68
 496:Drivers/STM32F4xx_HAL_Driver/Src/stm32f4xx_hal_pcd.c ****       }
 1088              		.loc 1 496 0
 1089 021e 2046     		mov	r0, r4
 1090 0220 FFF7FEFF 		bl	HAL_PCD_SuspendCallback
 1091              	.LVL102:
ARM GAS  /tmp/ccUYINNg.s 			page 45


 1092              	.L68:
 498:Drivers/STM32F4xx_HAL_Driver/Src/stm32f4xx_hal_pcd.c ****     }
 1093              		.loc 1 498 0
 1094 0224 2268     		ldr	r2, [r4]
 1095 0226 5369     		ldr	r3, [r2, #20]
 1096 0228 03F40063 		and	r3, r3, #2048
 1097 022c 5361     		str	r3, [r2, #20]
 1098              	.L67:
 520:Drivers/STM32F4xx_HAL_Driver/Src/stm32f4xx_hal_pcd.c ****     {
 1099              		.loc 1 520 0
 1100 022e 2068     		ldr	r0, [r4]
 1101 0230 FFF7FEFF 		bl	USB_ReadInterrupts
 1102              	.LVL103:
 1103 0234 10F4805F 		tst	r0, #4096
 1104 0238 4FD0     		beq	.L69
 522:Drivers/STM32F4xx_HAL_Driver/Src/stm32f4xx_hal_pcd.c ****       USB_FlushTxFifo(hpcd->Instance , 0x10U);
 1105              		.loc 1 522 0
 1106 023a 3746     		mov	r7, r6
 1107 023c 06F50068 		add	r8, r6, #2048
 1108 0240 D8F80430 		ldr	r3, [r8, #4]
 1109 0244 23F00103 		bic	r3, r3, #1
 1110 0248 C8F80430 		str	r3, [r8, #4]
 523:Drivers/STM32F4xx_HAL_Driver/Src/stm32f4xx_hal_pcd.c ****       
 1111              		.loc 1 523 0
 1112 024c 2068     		ldr	r0, [r4]
 1113 024e 1021     		movs	r1, #16
 1114 0250 FFF7FEFF 		bl	USB_FlushTxFifo
 1115              	.LVL104:
 525:Drivers/STM32F4xx_HAL_Driver/Src/stm32f4xx_hal_pcd.c ****       {
 1116              		.loc 1 525 0
 1117 0254 0022     		movs	r2, #0
 1118 0256 07E0     		b	.L70
 1119              	.LVL105:
 1120              	.L71:
 527:Drivers/STM32F4xx_HAL_Driver/Src/stm32f4xx_hal_pcd.c ****         USBx_OUTEP(i)->DOEPINT = 0xFFU;
 1121              		.loc 1 527 0 discriminator 3
 1122 0258 07EB4213 		add	r3, r7, r2, lsl #5
 1123 025c FF21     		movs	r1, #255
 1124 025e C3F80819 		str	r1, [r3, #2312]
 528:Drivers/STM32F4xx_HAL_Driver/Src/stm32f4xx_hal_pcd.c ****       }
 1125              		.loc 1 528 0 discriminator 3
 1126 0262 C3F8081B 		str	r1, [r3, #2824]
 525:Drivers/STM32F4xx_HAL_Driver/Src/stm32f4xx_hal_pcd.c ****       {
 1127              		.loc 1 525 0 discriminator 3
 1128 0266 0132     		adds	r2, r2, #1
 1129              	.LVL106:
 1130              	.L70:
 525:Drivers/STM32F4xx_HAL_Driver/Src/stm32f4xx_hal_pcd.c ****       {
 1131              		.loc 1 525 0 is_stmt 0 discriminator 1
 1132 0268 6368     		ldr	r3, [r4, #4]
 1133 026a 9342     		cmp	r3, r2
 1134 026c F4D8     		bhi	.L71
 530:Drivers/STM32F4xx_HAL_Driver/Src/stm32f4xx_hal_pcd.c ****       USBx_DEVICE->DAINTMSK |= 0x10001U;
 1135              		.loc 1 530 0 is_stmt 1
 1136 026e 4FF0FF33 		mov	r3, #-1
 1137 0272 C8F81830 		str	r3, [r8, #24]
 531:Drivers/STM32F4xx_HAL_Driver/Src/stm32f4xx_hal_pcd.c ****       
ARM GAS  /tmp/ccUYINNg.s 			page 46


 1138              		.loc 1 531 0
 1139 0276 D8F81C30 		ldr	r3, [r8, #28]
 1140 027a 43F00113 		orr	r3, r3, #65537
 1141 027e C8F81C30 		str	r3, [r8, #28]
 533:Drivers/STM32F4xx_HAL_Driver/Src/stm32f4xx_hal_pcd.c ****       {
 1142              		.loc 1 533 0
 1143 0282 236B     		ldr	r3, [r4, #48]
 1144 0284 63B1     		cbz	r3, .L72
 535:Drivers/STM32F4xx_HAL_Driver/Src/stm32f4xx_hal_pcd.c ****         USBx_DEVICE->DINEP1MSK |= (USB_OTG_DIEPMSK_TOM | USB_OTG_DIEPMSK_XFRCM | USB_OTG_DIEPMSK_EP
 1145              		.loc 1 535 0
 1146 0286 D8F88430 		ldr	r3, [r8, #132]
 1147 028a 43F00B03 		orr	r3, r3, #11
 1148 028e C8F88430 		str	r3, [r8, #132]
 536:Drivers/STM32F4xx_HAL_Driver/Src/stm32f4xx_hal_pcd.c ****       }
 1149              		.loc 1 536 0
 1150 0292 D8F84430 		ldr	r3, [r8, #68]
 1151 0296 43F00B03 		orr	r3, r3, #11
 1152 029a C8F84430 		str	r3, [r8, #68]
 1153 029e 0BE0     		b	.L73
 1154              	.L72:
 543:Drivers/STM32F4xx_HAL_Driver/Src/stm32f4xx_hal_pcd.c **** #endif /* USB_OTG_DOEPINT_OTEPSPR */
 1155              		.loc 1 543 0
 1156 02a0 D8F81430 		ldr	r3, [r8, #20]
 1157 02a4 43F00B03 		orr	r3, r3, #11
 1158 02a8 C8F81430 		str	r3, [r8, #20]
 545:Drivers/STM32F4xx_HAL_Driver/Src/stm32f4xx_hal_pcd.c ****       }
 1159              		.loc 1 545 0
 1160 02ac D8F81030 		ldr	r3, [r8, #16]
 1161 02b0 43F00B03 		orr	r3, r3, #11
 1162 02b4 C8F81030 		str	r3, [r8, #16]
 1163              	.L73:
 549:Drivers/STM32F4xx_HAL_Driver/Src/stm32f4xx_hal_pcd.c ****       
 1164              		.loc 1 549 0
 1165 02b8 D6F80038 		ldr	r3, [r6, #2048]
 1166 02bc 23F4FE63 		bic	r3, r3, #2032
 1167 02c0 C6F80038 		str	r3, [r6, #2048]
 552:Drivers/STM32F4xx_HAL_Driver/Src/stm32f4xx_hal_pcd.c ****         
 1168              		.loc 1 552 0
 1169 02c4 2068     		ldr	r0, [r4]
 1170 02c6 217C     		ldrb	r1, [r4, #16]	@ zero_extendqisi2
 1171 02c8 04F56F72 		add	r2, r4, #956
 1172              	.LVL107:
 1173 02cc FFF7FEFF 		bl	USB_EP0_OutStart
 1174              	.LVL108:
 554:Drivers/STM32F4xx_HAL_Driver/Src/stm32f4xx_hal_pcd.c ****     }
 1175              		.loc 1 554 0
 1176 02d0 2268     		ldr	r2, [r4]
 1177 02d2 5369     		ldr	r3, [r2, #20]
 1178 02d4 03F48053 		and	r3, r3, #4096
 1179 02d8 5361     		str	r3, [r2, #20]
 1180              	.L69:
 558:Drivers/STM32F4xx_HAL_Driver/Src/stm32f4xx_hal_pcd.c ****     {
 1181              		.loc 1 558 0
 1182 02da 2068     		ldr	r0, [r4]
 1183 02dc FFF7FEFF 		bl	USB_ReadInterrupts
 1184              	.LVL109:
 1185 02e0 10F4005F 		tst	r0, #8192
ARM GAS  /tmp/ccUYINNg.s 			page 47


 1186 02e4 00F09380 		beq	.L74
 560:Drivers/STM32F4xx_HAL_Driver/Src/stm32f4xx_hal_pcd.c ****       hpcd->Instance->GUSBCFG &= ~USB_OTG_GUSBCFG_TRDT;
 1187              		.loc 1 560 0
 1188 02e8 2068     		ldr	r0, [r4]
 1189 02ea FFF7FEFF 		bl	USB_ActivateSetup
 1190              	.LVL110:
 561:Drivers/STM32F4xx_HAL_Driver/Src/stm32f4xx_hal_pcd.c ****       
 1191              		.loc 1 561 0
 1192 02ee 2268     		ldr	r2, [r4]
 1193 02f0 D368     		ldr	r3, [r2, #12]
 1194 02f2 23F47053 		bic	r3, r3, #15360
 1195 02f6 D360     		str	r3, [r2, #12]
 563:Drivers/STM32F4xx_HAL_Driver/Src/stm32f4xx_hal_pcd.c ****       {
 1196              		.loc 1 563 0
 1197 02f8 2068     		ldr	r0, [r4]
 1198 02fa FFF7FEFF 		bl	USB_GetDevSpeed
 1199              	.LVL111:
 1200 02fe 50B9     		cbnz	r0, .L75
 565:Drivers/STM32F4xx_HAL_Driver/Src/stm32f4xx_hal_pcd.c ****         hpcd->Init.ep0_mps          = USB_OTG_HS_MAX_PACKET_SIZE ;    
 1201              		.loc 1 565 0
 1202 0300 0023     		movs	r3, #0
 1203 0302 E360     		str	r3, [r4, #12]
 566:Drivers/STM32F4xx_HAL_Driver/Src/stm32f4xx_hal_pcd.c ****         hpcd->Instance->GUSBCFG |= (uint32_t)((USBD_HS_TRDT_VALUE << 10U) & USB_OTG_GUSBCFG_TRDT);
 1204              		.loc 1 566 0
 1205 0304 4FF40073 		mov	r3, #512
 1206 0308 6361     		str	r3, [r4, #20]
 567:Drivers/STM32F4xx_HAL_Driver/Src/stm32f4xx_hal_pcd.c ****       }
 1207              		.loc 1 567 0
 1208 030a 2268     		ldr	r2, [r4]
 1209 030c D368     		ldr	r3, [r2, #12]
 1210 030e 43F41053 		orr	r3, r3, #9216
 1211 0312 D360     		str	r3, [r2, #12]
 1212 0314 73E0     		b	.L76
 1213              	.L75:
 571:Drivers/STM32F4xx_HAL_Driver/Src/stm32f4xx_hal_pcd.c ****         hpcd->Init.ep0_mps          = USB_OTG_FS_MAX_PACKET_SIZE ;  
 1214              		.loc 1 571 0
 1215 0316 0323     		movs	r3, #3
 1216 0318 E360     		str	r3, [r4, #12]
 572:Drivers/STM32F4xx_HAL_Driver/Src/stm32f4xx_hal_pcd.c ****         
 1217              		.loc 1 572 0
 1218 031a 4023     		movs	r3, #64
 1219 031c 6361     		str	r3, [r4, #20]
 580:Drivers/STM32F4xx_HAL_Driver/Src/stm32f4xx_hal_pcd.c ****         
 1220              		.loc 1 580 0
 1221 031e FFF7FEFF 		bl	HAL_RCC_GetHCLKFreq
 1222              	.LVL112:
 582:Drivers/STM32F4xx_HAL_Driver/Src/stm32f4xx_hal_pcd.c ****         {
 1223              		.loc 1 582 0
 1224 0322 864B     		ldr	r3, .L96
 1225 0324 0344     		add	r3, r3, r0
 1226 0326 864A     		ldr	r2, .L96+4
 1227 0328 9342     		cmp	r3, r2
 1228 032a 05D8     		bhi	.L77
 585:Drivers/STM32F4xx_HAL_Driver/Src/stm32f4xx_hal_pcd.c ****         }
 1229              		.loc 1 585 0
 1230 032c 2268     		ldr	r2, [r4]
 1231 032e D368     		ldr	r3, [r2, #12]
ARM GAS  /tmp/ccUYINNg.s 			page 48


 1232 0330 43F47053 		orr	r3, r3, #15360
 1233 0334 D360     		str	r3, [r2, #12]
 1234 0336 62E0     		b	.L76
 1235              	.L77:
 588:Drivers/STM32F4xx_HAL_Driver/Src/stm32f4xx_hal_pcd.c ****         {
 1236              		.loc 1 588 0
 1237 0338 824B     		ldr	r3, .L96+8
 1238 033a 0344     		add	r3, r3, r0
 1239 033c 824A     		ldr	r2, .L96+12
 1240 033e 9342     		cmp	r3, r2
 1241 0340 05D8     		bhi	.L78
 591:Drivers/STM32F4xx_HAL_Driver/Src/stm32f4xx_hal_pcd.c ****         }
 1242              		.loc 1 591 0
 1243 0342 2268     		ldr	r2, [r4]
 1244 0344 D368     		ldr	r3, [r2, #12]
 1245 0346 43F46053 		orr	r3, r3, #14336
 1246 034a D360     		str	r3, [r2, #12]
 1247 034c 57E0     		b	.L76
 1248              	.L78:
 594:Drivers/STM32F4xx_HAL_Driver/Src/stm32f4xx_hal_pcd.c ****         {
 1249              		.loc 1 594 0
 1250 034e A0F57403 		sub	r3, r0, #15990784
 1251 0352 A3F51053 		sub	r3, r3, #9216
 1252 0356 7D4A     		ldr	r2, .L96+16
 1253 0358 9342     		cmp	r3, r2
 1254 035a 05D8     		bhi	.L79
 597:Drivers/STM32F4xx_HAL_Driver/Src/stm32f4xx_hal_pcd.c ****         }
 1255              		.loc 1 597 0
 1256 035c 2268     		ldr	r2, [r4]
 1257 035e D368     		ldr	r3, [r2, #12]
 1258 0360 43F45053 		orr	r3, r3, #13312
 1259 0364 D360     		str	r3, [r2, #12]
 1260 0366 4AE0     		b	.L76
 1261              	.L79:
 600:Drivers/STM32F4xx_HAL_Driver/Src/stm32f4xx_hal_pcd.c ****         {
 1262              		.loc 1 600 0
 1263 0368 A0F18373 		sub	r3, r0, #17170432
 1264 036c A3F5E743 		sub	r3, r3, #29568
 1265 0370 774A     		ldr	r2, .L96+20
 1266 0372 9342     		cmp	r3, r2
 1267 0374 05D8     		bhi	.L80
 603:Drivers/STM32F4xx_HAL_Driver/Src/stm32f4xx_hal_pcd.c ****         }
 1268              		.loc 1 603 0
 1269 0376 2268     		ldr	r2, [r4]
 1270 0378 D368     		ldr	r3, [r2, #12]
 1271 037a 43F44053 		orr	r3, r3, #12288
 1272 037e D360     		str	r3, [r2, #12]
 1273 0380 3DE0     		b	.L76
 1274              	.L80:
 606:Drivers/STM32F4xx_HAL_Driver/Src/stm32f4xx_hal_pcd.c ****         {
 1275              		.loc 1 606 0
 1276 0382 744B     		ldr	r3, .L96+24
 1277 0384 0344     		add	r3, r3, r0
 1278 0386 744A     		ldr	r2, .L96+28
 1279 0388 9342     		cmp	r3, r2
 1280 038a 05D8     		bhi	.L81
 609:Drivers/STM32F4xx_HAL_Driver/Src/stm32f4xx_hal_pcd.c ****         }
ARM GAS  /tmp/ccUYINNg.s 			page 49


 1281              		.loc 1 609 0
 1282 038c 2268     		ldr	r2, [r4]
 1283 038e D368     		ldr	r3, [r2, #12]
 1284 0390 43F43053 		orr	r3, r3, #11264
 1285 0394 D360     		str	r3, [r2, #12]
 1286 0396 32E0     		b	.L76
 1287              	.L81:
 612:Drivers/STM32F4xx_HAL_Driver/Src/stm32f4xx_hal_pcd.c ****         {
 1288              		.loc 1 612 0
 1289 0398 704B     		ldr	r3, .L96+32
 1290 039a 0344     		add	r3, r3, r0
 1291 039c 704A     		ldr	r2, .L96+36
 1292 039e 9342     		cmp	r3, r2
 1293 03a0 05D8     		bhi	.L82
 615:Drivers/STM32F4xx_HAL_Driver/Src/stm32f4xx_hal_pcd.c ****         }
 1294              		.loc 1 615 0
 1295 03a2 2268     		ldr	r2, [r4]
 1296 03a4 D368     		ldr	r3, [r2, #12]
 1297 03a6 43F42053 		orr	r3, r3, #10240
 1298 03aa D360     		str	r3, [r2, #12]
 1299 03ac 27E0     		b	.L76
 1300              	.L82:
 618:Drivers/STM32F4xx_HAL_Driver/Src/stm32f4xx_hal_pcd.c ****         {
 1301              		.loc 1 618 0
 1302 03ae 6D4B     		ldr	r3, .L96+40
 1303 03b0 0344     		add	r3, r3, r0
 1304 03b2 6D4A     		ldr	r2, .L96+44
 1305 03b4 9342     		cmp	r3, r2
 1306 03b6 05D8     		bhi	.L83
 621:Drivers/STM32F4xx_HAL_Driver/Src/stm32f4xx_hal_pcd.c ****         }
 1307              		.loc 1 621 0
 1308 03b8 2268     		ldr	r2, [r4]
 1309 03ba D368     		ldr	r3, [r2, #12]
 1310 03bc 43F41053 		orr	r3, r3, #9216
 1311 03c0 D360     		str	r3, [r2, #12]
 1312 03c2 1CE0     		b	.L76
 1313              	.L83:
 624:Drivers/STM32F4xx_HAL_Driver/Src/stm32f4xx_hal_pcd.c ****         {
 1314              		.loc 1 624 0
 1315 03c4 A0F1B773 		sub	r3, r0, #23986176
 1316 03c8 A3F55853 		sub	r3, r3, #13824
 1317 03cc 674A     		ldr	r2, .L96+48
 1318 03ce 9342     		cmp	r3, r2
 1319 03d0 05D8     		bhi	.L84
 627:Drivers/STM32F4xx_HAL_Driver/Src/stm32f4xx_hal_pcd.c ****         }
 1320              		.loc 1 627 0
 1321 03d2 2268     		ldr	r2, [r4]
 1322 03d4 D368     		ldr	r3, [r2, #12]
 1323 03d6 43F40053 		orr	r3, r3, #8192
 1324 03da D360     		str	r3, [r2, #12]
 1325 03dc 0FE0     		b	.L76
 1326              	.L84:
 630:Drivers/STM32F4xx_HAL_Driver/Src/stm32f4xx_hal_pcd.c ****         {
 1327              		.loc 1 630 0
 1328 03de 644B     		ldr	r3, .L96+52
 1329 03e0 0344     		add	r3, r3, r0
 1330 03e2 644A     		ldr	r2, .L96+56
ARM GAS  /tmp/ccUYINNg.s 			page 50


 1331 03e4 9342     		cmp	r3, r2
 1332 03e6 05D8     		bhi	.L85
 633:Drivers/STM32F4xx_HAL_Driver/Src/stm32f4xx_hal_pcd.c ****         }
 1333              		.loc 1 633 0
 1334 03e8 2268     		ldr	r2, [r4]
 1335 03ea D368     		ldr	r3, [r2, #12]
 1336 03ec 43F4E053 		orr	r3, r3, #7168
 1337 03f0 D360     		str	r3, [r2, #12]
 1338 03f2 04E0     		b	.L76
 1339              	.L85:
 639:Drivers/STM32F4xx_HAL_Driver/Src/stm32f4xx_hal_pcd.c ****         }  
 1340              		.loc 1 639 0
 1341 03f4 2268     		ldr	r2, [r4]
 1342 03f6 D368     		ldr	r3, [r2, #12]
 1343 03f8 43F4C053 		orr	r3, r3, #6144
 1344 03fc D360     		str	r3, [r2, #12]
 1345              	.LVL113:
 1346              	.L76:
 643:Drivers/STM32F4xx_HAL_Driver/Src/stm32f4xx_hal_pcd.c ****       
 1347              		.loc 1 643 0
 1348 03fe 2046     		mov	r0, r4
 1349 0400 FFF7FEFF 		bl	HAL_PCD_ResetCallback
 1350              	.LVL114:
 645:Drivers/STM32F4xx_HAL_Driver/Src/stm32f4xx_hal_pcd.c ****     }
 1351              		.loc 1 645 0
 1352 0404 2268     		ldr	r2, [r4]
 1353 0406 5369     		ldr	r3, [r2, #20]
 1354 0408 03F40053 		and	r3, r3, #8192
 1355 040c 5361     		str	r3, [r2, #20]
 1356              	.L74:
 649:Drivers/STM32F4xx_HAL_Driver/Src/stm32f4xx_hal_pcd.c ****     {
 1357              		.loc 1 649 0
 1358 040e 2068     		ldr	r0, [r4]
 1359 0410 FFF7FEFF 		bl	USB_ReadInterrupts
 1360              	.LVL115:
 1361 0414 10F0100F 		tst	r0, #16
 1362 0418 42D0     		beq	.L86
 651:Drivers/STM32F4xx_HAL_Driver/Src/stm32f4xx_hal_pcd.c ****       
 1363              		.loc 1 651 0
 1364 041a 2268     		ldr	r2, [r4]
 1365 041c 9369     		ldr	r3, [r2, #24]
 1366 041e 23F01003 		bic	r3, r3, #16
 1367 0422 9361     		str	r3, [r2, #24]
 653:Drivers/STM32F4xx_HAL_Driver/Src/stm32f4xx_hal_pcd.c ****       
 1368              		.loc 1 653 0
 1369 0424 376A     		ldr	r7, [r6, #32]
 1370              	.LVL116:
 655:Drivers/STM32F4xx_HAL_Driver/Src/stm32f4xx_hal_pcd.c ****       
 1371              		.loc 1 655 0
 1372 0426 07F00F08 		and	r8, r7, #15
 1373              	.LVL117:
 657:Drivers/STM32F4xx_HAL_Driver/Src/stm32f4xx_hal_pcd.c ****       {
 1374              		.loc 1 657 0
 1375 042a C7F34343 		ubfx	r3, r7, #17, #4
 1376 042e 022B     		cmp	r3, #2
 1377 0430 1CD1     		bne	.L87
 659:Drivers/STM32F4xx_HAL_Driver/Src/stm32f4xx_hal_pcd.c ****         {
ARM GAS  /tmp/ccUYINNg.s 			page 51


 1378              		.loc 1 659 0
 1379 0432 47F6F073 		movw	r3, #32752
 1380 0436 1F40     		ands	r7, r7, r3
 1381              	.LVL118:
 1382 0438 2DD0     		beq	.L88
 661:Drivers/STM32F4xx_HAL_Driver/Src/stm32f4xx_hal_pcd.c ****           ep->xfer_buff += (temp & USB_OTG_GRXSTSP_BCNT) >> 4U;
 1383              		.loc 1 661 0
 1384 043a 3F09     		lsrs	r7, r7, #4
 1385 043c 4FEAC809 		lsl	r9, r8, #3
 1386 0440 C8EB090A 		rsb	r10, r8, r9
 1387 0444 4FEA8A0A 		lsl	r10, r10, #2
 1388 0448 A244     		add	r10, r10, r4
 1389 044a 3046     		mov	r0, r6
 1390 044c DAF80412 		ldr	r1, [r10, #516]
 1391 0450 3A46     		mov	r2, r7
 1392 0452 FFF7FEFF 		bl	USB_ReadPacket
 1393              	.LVL119:
 662:Drivers/STM32F4xx_HAL_Driver/Src/stm32f4xx_hal_pcd.c ****           ep->xfer_count += (temp & USB_OTG_GRXSTSP_BCNT) >> 4U;
 1394              		.loc 1 662 0
 1395 0456 DAF80432 		ldr	r3, [r10, #516]
 1396 045a 3B44     		add	r3, r3, r7
 1397 045c CAF80432 		str	r3, [r10, #516]
 663:Drivers/STM32F4xx_HAL_Driver/Src/stm32f4xx_hal_pcd.c ****         }
 1398              		.loc 1 663 0
 1399 0460 DAF81032 		ldr	r3, [r10, #528]
 1400 0464 1F44     		add	r7, r7, r3
 1401 0466 CAF81072 		str	r7, [r10, #528]
 1402 046a 14E0     		b	.L88
 1403              	.LVL120:
 1404              	.L87:
 666:Drivers/STM32F4xx_HAL_Driver/Src/stm32f4xx_hal_pcd.c ****       {
 1405              		.loc 1 666 0
 1406 046c 062B     		cmp	r3, #6
 1407 046e 12D1     		bne	.L88
 668:Drivers/STM32F4xx_HAL_Driver/Src/stm32f4xx_hal_pcd.c ****         ep->xfer_count += (temp & USB_OTG_GRXSTSP_BCNT) >> 4U;
 1408              		.loc 1 668 0
 1409 0470 3046     		mov	r0, r6
 1410 0472 04F56F71 		add	r1, r4, #956
 1411 0476 0822     		movs	r2, #8
 1412 0478 FFF7FEFF 		bl	USB_ReadPacket
 1413              	.LVL121:
 669:Drivers/STM32F4xx_HAL_Driver/Src/stm32f4xx_hal_pcd.c ****       }
 1414              		.loc 1 669 0
 1415 047c C7F30A17 		ubfx	r7, r7, #4, #11
 1416              	.LVL122:
 1417 0480 4FEAC803 		lsl	r3, r8, #3
 1418 0484 C8EB0302 		rsb	r2, r8, r3
 1419 0488 9200     		lsls	r2, r2, #2
 1420 048a 2244     		add	r2, r2, r4
 1421 048c D2F81032 		ldr	r3, [r2, #528]
 1422 0490 3B44     		add	r3, r3, r7
 1423 0492 C2F81032 		str	r3, [r2, #528]
 1424              	.L88:
 671:Drivers/STM32F4xx_HAL_Driver/Src/stm32f4xx_hal_pcd.c ****     }
 1425              		.loc 1 671 0
 1426 0496 2268     		ldr	r2, [r4]
 1427 0498 9369     		ldr	r3, [r2, #24]
ARM GAS  /tmp/ccUYINNg.s 			page 52


 1428 049a 43F01003 		orr	r3, r3, #16
 1429 049e 9361     		str	r3, [r2, #24]
 1430              	.LVL123:
 1431              	.L86:
 675:Drivers/STM32F4xx_HAL_Driver/Src/stm32f4xx_hal_pcd.c ****     {
 1432              		.loc 1 675 0
 1433 04a0 2068     		ldr	r0, [r4]
 1434 04a2 FFF7FEFF 		bl	USB_ReadInterrupts
 1435              	.LVL124:
 1436 04a6 10F0080F 		tst	r0, #8
 1437 04aa 07D0     		beq	.L89
 677:Drivers/STM32F4xx_HAL_Driver/Src/stm32f4xx_hal_pcd.c ****       __HAL_PCD_CLEAR_FLAG(hpcd, USB_OTG_GINTSTS_SOF);
 1438              		.loc 1 677 0
 1439 04ac 2046     		mov	r0, r4
 1440 04ae FFF7FEFF 		bl	HAL_PCD_SOFCallback
 1441              	.LVL125:
 678:Drivers/STM32F4xx_HAL_Driver/Src/stm32f4xx_hal_pcd.c ****     }
 1442              		.loc 1 678 0
 1443 04b2 2268     		ldr	r2, [r4]
 1444 04b4 5369     		ldr	r3, [r2, #20]
 1445 04b6 03F00803 		and	r3, r3, #8
 1446 04ba 5361     		str	r3, [r2, #20]
 1447              	.L89:
 682:Drivers/STM32F4xx_HAL_Driver/Src/stm32f4xx_hal_pcd.c ****     {
 1448              		.loc 1 682 0
 1449 04bc 2068     		ldr	r0, [r4]
 1450 04be FFF7FEFF 		bl	USB_ReadInterrupts
 1451              	.LVL126:
 1452 04c2 10F4801F 		tst	r0, #1048576
 1453 04c6 08D0     		beq	.L90
 684:Drivers/STM32F4xx_HAL_Driver/Src/stm32f4xx_hal_pcd.c ****       __HAL_PCD_CLEAR_FLAG(hpcd, USB_OTG_GINTSTS_IISOIXFR);
 1454              		.loc 1 684 0
 1455 04c8 2046     		mov	r0, r4
 1456 04ca E9B2     		uxtb	r1, r5
 1457 04cc FFF7FEFF 		bl	HAL_PCD_ISOINIncompleteCallback
 1458              	.LVL127:
 685:Drivers/STM32F4xx_HAL_Driver/Src/stm32f4xx_hal_pcd.c ****     } 
 1459              		.loc 1 685 0
 1460 04d0 2268     		ldr	r2, [r4]
 1461 04d2 5369     		ldr	r3, [r2, #20]
 1462 04d4 03F48013 		and	r3, r3, #1048576
 1463 04d8 5361     		str	r3, [r2, #20]
 1464              	.L90:
 689:Drivers/STM32F4xx_HAL_Driver/Src/stm32f4xx_hal_pcd.c ****     {
 1465              		.loc 1 689 0
 1466 04da 2068     		ldr	r0, [r4]
 1467 04dc FFF7FEFF 		bl	USB_ReadInterrupts
 1468              	.LVL128:
 1469 04e0 10F4001F 		tst	r0, #2097152
 1470 04e4 08D0     		beq	.L91
 691:Drivers/STM32F4xx_HAL_Driver/Src/stm32f4xx_hal_pcd.c ****       __HAL_PCD_CLEAR_FLAG(hpcd, USB_OTG_GINTSTS_PXFR_INCOMPISOOUT);
 1471              		.loc 1 691 0
 1472 04e6 2046     		mov	r0, r4
 1473 04e8 E9B2     		uxtb	r1, r5
 1474 04ea FFF7FEFF 		bl	HAL_PCD_ISOOUTIncompleteCallback
 1475              	.LVL129:
 692:Drivers/STM32F4xx_HAL_Driver/Src/stm32f4xx_hal_pcd.c ****     } 
ARM GAS  /tmp/ccUYINNg.s 			page 53


 1476              		.loc 1 692 0
 1477 04ee 2268     		ldr	r2, [r4]
 1478 04f0 5369     		ldr	r3, [r2, #20]
 1479 04f2 03F40013 		and	r3, r3, #2097152
 1480 04f6 5361     		str	r3, [r2, #20]
 1481              	.L91:
 696:Drivers/STM32F4xx_HAL_Driver/Src/stm32f4xx_hal_pcd.c ****     {
 1482              		.loc 1 696 0
 1483 04f8 2068     		ldr	r0, [r4]
 1484 04fa FFF7FEFF 		bl	USB_ReadInterrupts
 1485              	.LVL130:
 1486 04fe 10F0804F 		tst	r0, #1073741824
 1487 0502 07D0     		beq	.L92
 698:Drivers/STM32F4xx_HAL_Driver/Src/stm32f4xx_hal_pcd.c ****       __HAL_PCD_CLEAR_FLAG(hpcd, USB_OTG_GINTSTS_SRQINT);
 1488              		.loc 1 698 0
 1489 0504 2046     		mov	r0, r4
 1490 0506 FFF7FEFF 		bl	HAL_PCD_ConnectCallback
 1491              	.LVL131:
 699:Drivers/STM32F4xx_HAL_Driver/Src/stm32f4xx_hal_pcd.c ****     } 
 1492              		.loc 1 699 0
 1493 050a 2268     		ldr	r2, [r4]
 1494 050c 5369     		ldr	r3, [r2, #20]
 1495 050e 03F08043 		and	r3, r3, #1073741824
 1496 0512 5361     		str	r3, [r2, #20]
 1497              	.L92:
 703:Drivers/STM32F4xx_HAL_Driver/Src/stm32f4xx_hal_pcd.c ****     {
 1498              		.loc 1 703 0
 1499 0514 2068     		ldr	r0, [r4]
 1500 0516 FFF7FEFF 		bl	USB_ReadInterrupts
 1501              	.LVL132:
 1502 051a 10F0040F 		tst	r0, #4
 1503 051e 0BD0     		beq	.L46
 705:Drivers/STM32F4xx_HAL_Driver/Src/stm32f4xx_hal_pcd.c ****       
 1504              		.loc 1 705 0
 1505 0520 2368     		ldr	r3, [r4]
 1506 0522 5D68     		ldr	r5, [r3, #4]
 1507              	.LVL133:
 707:Drivers/STM32F4xx_HAL_Driver/Src/stm32f4xx_hal_pcd.c ****       {
 1508              		.loc 1 707 0
 1509 0524 15F0040F 		tst	r5, #4
 1510 0528 02D0     		beq	.L93
 709:Drivers/STM32F4xx_HAL_Driver/Src/stm32f4xx_hal_pcd.c ****       }
 1511              		.loc 1 709 0
 1512 052a 2046     		mov	r0, r4
 1513 052c FFF7FEFF 		bl	HAL_PCD_DisconnectCallback
 1514              	.LVL134:
 1515              	.L93:
 711:Drivers/STM32F4xx_HAL_Driver/Src/stm32f4xx_hal_pcd.c ****     }
 1516              		.loc 1 711 0
 1517 0530 2368     		ldr	r3, [r4]
 1518 0532 5A68     		ldr	r2, [r3, #4]
 1519 0534 1543     		orrs	r5, r5, r2
 1520              	.LVL135:
 1521 0536 5D60     		str	r5, [r3, #4]
 1522              	.L46:
 1523 0538 BDE8F88F 		pop	{r3, r4, r5, r6, r7, r8, r9, r10, fp, pc}
 1524              	.LVL136:
ARM GAS  /tmp/ccUYINNg.s 			page 54


 1525              	.L97:
 1526              		.align	2
 1527              	.L96:
 1528 053c 405327FF 		.word	-14200000
 1529 0540 FF340C00 		.word	799999
 1530 0544 401E1BFF 		.word	-15000000
 1531 0548 3F420F00 		.word	999999
 1532 054c 7F4F1200 		.word	1199999
 1533 0550 1FD61300 		.word	1299999
 1534 0554 60B6E5FE 		.word	-18500000
 1535 0558 5FE31600 		.word	1499999
 1536 055c 00D3CEFE 		.word	-20000000
 1537 0560 3F771B00 		.word	1799999
 1538 0564 C05BB3FE 		.word	-21800000
 1539 0568 BF912100 		.word	2199999
 1540 056c 1F753800 		.word	3699999
 1541 0570 E05459FE 		.word	-27700000
 1542 0574 DF9C4100 		.word	4299999
 1543              		.cfi_endproc
 1544              	.LFE129:
 1546              		.section	.text.HAL_PCD_DevConnect,"ax",%progbits
 1547              		.align	2
 1548              		.global	HAL_PCD_DevConnect
 1549              		.thumb
 1550              		.thumb_func
 1552              	HAL_PCD_DevConnect:
 1553              	.LFB141:
 902:Drivers/STM32F4xx_HAL_Driver/Src/stm32f4xx_hal_pcd.c ****   __HAL_LOCK(hpcd); 
 1554              		.loc 1 902 0
 1555              		.cfi_startproc
 1556              		@ args = 0, pretend = 0, frame = 0
 1557              		@ frame_needed = 0, uses_anonymous_args = 0
 1558              	.LVL137:
 903:Drivers/STM32F4xx_HAL_Driver/Src/stm32f4xx_hal_pcd.c ****   USB_DevConnect(hpcd->Instance);
 1559              		.loc 1 903 0
 1560 0000 90F8B833 		ldrb	r3, [r0, #952]	@ zero_extendqisi2
 1561 0004 012B     		cmp	r3, #1
 1562 0006 0BD0     		beq	.L100
 902:Drivers/STM32F4xx_HAL_Driver/Src/stm32f4xx_hal_pcd.c ****   __HAL_LOCK(hpcd); 
 1563              		.loc 1 902 0 discriminator 2
 1564 0008 10B5     		push	{r4, lr}
 1565              	.LCFI15:
 1566              		.cfi_def_cfa_offset 8
 1567              		.cfi_offset 4, -8
 1568              		.cfi_offset 14, -4
 1569 000a 0446     		mov	r4, r0
 903:Drivers/STM32F4xx_HAL_Driver/Src/stm32f4xx_hal_pcd.c ****   USB_DevConnect(hpcd->Instance);
 1570              		.loc 1 903 0 discriminator 2
 1571 000c 0123     		movs	r3, #1
 1572 000e 80F8B833 		strb	r3, [r0, #952]
 904:Drivers/STM32F4xx_HAL_Driver/Src/stm32f4xx_hal_pcd.c ****   __HAL_UNLOCK(hpcd); 
 1573              		.loc 1 904 0 discriminator 2
 1574 0012 0068     		ldr	r0, [r0]
 1575              	.LVL138:
 1576 0014 FFF7FEFF 		bl	USB_DevConnect
 1577              	.LVL139:
 905:Drivers/STM32F4xx_HAL_Driver/Src/stm32f4xx_hal_pcd.c ****   return HAL_OK;
ARM GAS  /tmp/ccUYINNg.s 			page 55


 1578              		.loc 1 905 0 discriminator 2
 1579 0018 0020     		movs	r0, #0
 1580 001a 84F8B803 		strb	r0, [r4, #952]
 906:Drivers/STM32F4xx_HAL_Driver/Src/stm32f4xx_hal_pcd.c **** }
 1581              		.loc 1 906 0 discriminator 2
 1582 001e 10BD     		pop	{r4, pc}
 1583              	.LVL140:
 1584              	.L100:
 1585              	.LCFI16:
 1586              		.cfi_def_cfa_offset 0
 1587              		.cfi_restore 4
 1588              		.cfi_restore 14
 903:Drivers/STM32F4xx_HAL_Driver/Src/stm32f4xx_hal_pcd.c ****   USB_DevConnect(hpcd->Instance);
 1589              		.loc 1 903 0
 1590 0020 0220     		movs	r0, #2
 1591              	.LVL141:
 1592 0022 7047     		bx	lr
 1593              		.cfi_endproc
 1594              	.LFE141:
 1596              		.section	.text.HAL_PCD_DevDisconnect,"ax",%progbits
 1597              		.align	2
 1598              		.global	HAL_PCD_DevDisconnect
 1599              		.thumb
 1600              		.thumb_func
 1602              	HAL_PCD_DevDisconnect:
 1603              	.LFB142:
 915:Drivers/STM32F4xx_HAL_Driver/Src/stm32f4xx_hal_pcd.c ****   __HAL_LOCK(hpcd); 
 1604              		.loc 1 915 0
 1605              		.cfi_startproc
 1606              		@ args = 0, pretend = 0, frame = 0
 1607              		@ frame_needed = 0, uses_anonymous_args = 0
 1608              	.LVL142:
 916:Drivers/STM32F4xx_HAL_Driver/Src/stm32f4xx_hal_pcd.c ****   USB_DevDisconnect(hpcd->Instance);
 1609              		.loc 1 916 0
 1610 0000 90F8B833 		ldrb	r3, [r0, #952]	@ zero_extendqisi2
 1611 0004 012B     		cmp	r3, #1
 1612 0006 0BD0     		beq	.L105
 915:Drivers/STM32F4xx_HAL_Driver/Src/stm32f4xx_hal_pcd.c ****   __HAL_LOCK(hpcd); 
 1613              		.loc 1 915 0 discriminator 2
 1614 0008 10B5     		push	{r4, lr}
 1615              	.LCFI17:
 1616              		.cfi_def_cfa_offset 8
 1617              		.cfi_offset 4, -8
 1618              		.cfi_offset 14, -4
 1619 000a 0446     		mov	r4, r0
 916:Drivers/STM32F4xx_HAL_Driver/Src/stm32f4xx_hal_pcd.c ****   USB_DevDisconnect(hpcd->Instance);
 1620              		.loc 1 916 0 discriminator 2
 1621 000c 0123     		movs	r3, #1
 1622 000e 80F8B833 		strb	r3, [r0, #952]
 917:Drivers/STM32F4xx_HAL_Driver/Src/stm32f4xx_hal_pcd.c ****   __HAL_UNLOCK(hpcd); 
 1623              		.loc 1 917 0 discriminator 2
 1624 0012 0068     		ldr	r0, [r0]
 1625              	.LVL143:
 1626 0014 FFF7FEFF 		bl	USB_DevDisconnect
 1627              	.LVL144:
 918:Drivers/STM32F4xx_HAL_Driver/Src/stm32f4xx_hal_pcd.c ****   return HAL_OK;
 1628              		.loc 1 918 0 discriminator 2
ARM GAS  /tmp/ccUYINNg.s 			page 56


 1629 0018 0020     		movs	r0, #0
 1630 001a 84F8B803 		strb	r0, [r4, #952]
 919:Drivers/STM32F4xx_HAL_Driver/Src/stm32f4xx_hal_pcd.c **** }
 1631              		.loc 1 919 0 discriminator 2
 1632 001e 10BD     		pop	{r4, pc}
 1633              	.LVL145:
 1634              	.L105:
 1635              	.LCFI18:
 1636              		.cfi_def_cfa_offset 0
 1637              		.cfi_restore 4
 1638              		.cfi_restore 14
 916:Drivers/STM32F4xx_HAL_Driver/Src/stm32f4xx_hal_pcd.c ****   USB_DevDisconnect(hpcd->Instance);
 1639              		.loc 1 916 0
 1640 0020 0220     		movs	r0, #2
 1641              	.LVL146:
 1642 0022 7047     		bx	lr
 1643              		.cfi_endproc
 1644              	.LFE142:
 1646              		.section	.text.HAL_PCD_SetAddress,"ax",%progbits
 1647              		.align	2
 1648              		.global	HAL_PCD_SetAddress
 1649              		.thumb
 1650              		.thumb_func
 1652              	HAL_PCD_SetAddress:
 1653              	.LFB143:
 929:Drivers/STM32F4xx_HAL_Driver/Src/stm32f4xx_hal_pcd.c ****   __HAL_LOCK(hpcd); 
 1654              		.loc 1 929 0
 1655              		.cfi_startproc
 1656              		@ args = 0, pretend = 0, frame = 0
 1657              		@ frame_needed = 0, uses_anonymous_args = 0
 1658              	.LVL147:
 930:Drivers/STM32F4xx_HAL_Driver/Src/stm32f4xx_hal_pcd.c ****   USB_SetDevAddress(hpcd->Instance, address);
 1659              		.loc 1 930 0
 1660 0000 90F8B833 		ldrb	r3, [r0, #952]	@ zero_extendqisi2
 1661 0004 012B     		cmp	r3, #1
 1662 0006 0BD0     		beq	.L110
 929:Drivers/STM32F4xx_HAL_Driver/Src/stm32f4xx_hal_pcd.c ****   __HAL_LOCK(hpcd); 
 1663              		.loc 1 929 0 discriminator 2
 1664 0008 10B5     		push	{r4, lr}
 1665              	.LCFI19:
 1666              		.cfi_def_cfa_offset 8
 1667              		.cfi_offset 4, -8
 1668              		.cfi_offset 14, -4
 1669 000a 0446     		mov	r4, r0
 930:Drivers/STM32F4xx_HAL_Driver/Src/stm32f4xx_hal_pcd.c ****   USB_SetDevAddress(hpcd->Instance, address);
 1670              		.loc 1 930 0 discriminator 2
 1671 000c 0123     		movs	r3, #1
 1672 000e 80F8B833 		strb	r3, [r0, #952]
 931:Drivers/STM32F4xx_HAL_Driver/Src/stm32f4xx_hal_pcd.c ****   __HAL_UNLOCK(hpcd);   
 1673              		.loc 1 931 0 discriminator 2
 1674 0012 0068     		ldr	r0, [r0]
 1675              	.LVL148:
 1676 0014 FFF7FEFF 		bl	USB_SetDevAddress
 1677              	.LVL149:
 932:Drivers/STM32F4xx_HAL_Driver/Src/stm32f4xx_hal_pcd.c ****   return HAL_OK;
 1678              		.loc 1 932 0 discriminator 2
 1679 0018 0020     		movs	r0, #0
ARM GAS  /tmp/ccUYINNg.s 			page 57


 1680 001a 84F8B803 		strb	r0, [r4, #952]
 933:Drivers/STM32F4xx_HAL_Driver/Src/stm32f4xx_hal_pcd.c **** }
 1681              		.loc 1 933 0 discriminator 2
 1682 001e 10BD     		pop	{r4, pc}
 1683              	.LVL150:
 1684              	.L110:
 1685              	.LCFI20:
 1686              		.cfi_def_cfa_offset 0
 1687              		.cfi_restore 4
 1688              		.cfi_restore 14
 930:Drivers/STM32F4xx_HAL_Driver/Src/stm32f4xx_hal_pcd.c ****   USB_SetDevAddress(hpcd->Instance, address);
 1689              		.loc 1 930 0
 1690 0020 0220     		movs	r0, #2
 1691              	.LVL151:
 1692 0022 7047     		bx	lr
 1693              		.cfi_endproc
 1694              	.LFE143:
 1696              		.section	.text.HAL_PCD_EP_Open,"ax",%progbits
 1697              		.align	2
 1698              		.global	HAL_PCD_EP_Open
 1699              		.thumb
 1700              		.thumb_func
 1702              	HAL_PCD_EP_Open:
 1703              	.LFB144:
 944:Drivers/STM32F4xx_HAL_Driver/Src/stm32f4xx_hal_pcd.c ****   HAL_StatusTypeDef  ret = HAL_OK;
 1704              		.loc 1 944 0
 1705              		.cfi_startproc
 1706              		@ args = 0, pretend = 0, frame = 0
 1707              		@ frame_needed = 0, uses_anonymous_args = 0
 1708              	.LVL152:
 1709 0000 38B5     		push	{r3, r4, r5, lr}
 1710              	.LCFI21:
 1711              		.cfi_def_cfa_offset 16
 1712              		.cfi_offset 3, -16
 1713              		.cfi_offset 4, -12
 1714              		.cfi_offset 5, -8
 1715              		.cfi_offset 14, -4
 1716 0002 0546     		mov	r5, r0
 1717              	.LVL153:
 948:Drivers/STM32F4xx_HAL_Driver/Src/stm32f4xx_hal_pcd.c ****   {
 1718              		.loc 1 948 0
 1719 0004 C8B2     		uxtb	r0, r1
 1720              	.LVL154:
 1721 0006 10F0800F 		tst	r0, #128
 1722 000a 07D0     		beq	.L114
 950:Drivers/STM32F4xx_HAL_Driver/Src/stm32f4xx_hal_pcd.c ****   }
 1723              		.loc 1 950 0
 1724 000c 01F07F04 		and	r4, r1, #127
 1725 0010 C4EBC404 		rsb	r4, r4, r4, lsl #3
 1726 0014 A400     		lsls	r4, r4, #2
 1727 0016 3834     		adds	r4, r4, #56
 1728 0018 2C44     		add	r4, r4, r5
 1729              	.LVL155:
 1730 001a 07E0     		b	.L115
 1731              	.LVL156:
 1732              	.L114:
 954:Drivers/STM32F4xx_HAL_Driver/Src/stm32f4xx_hal_pcd.c ****   }
ARM GAS  /tmp/ccUYINNg.s 			page 58


 1733              		.loc 1 954 0
 1734 001c 01F07F04 		and	r4, r1, #127
 1735 0020 C4EBC404 		rsb	r4, r4, r4, lsl #3
 1736 0024 A400     		lsls	r4, r4, #2
 1737 0026 04F5FC74 		add	r4, r4, #504
 1738 002a 2C44     		add	r4, r4, r5
 1739              	.LVL157:
 1740              	.L115:
 956:Drivers/STM32F4xx_HAL_Driver/Src/stm32f4xx_hal_pcd.c ****   
 1741              		.loc 1 956 0
 1742 002c 01F07F01 		and	r1, r1, #127
 1743              	.LVL158:
 1744 0030 2170     		strb	r1, [r4]
 958:Drivers/STM32F4xx_HAL_Driver/Src/stm32f4xx_hal_pcd.c ****   ep->maxpacket = ep_mps;
 1745              		.loc 1 958 0
 1746 0032 C009     		lsrs	r0, r0, #7
 1747              	.LVL159:
 1748 0034 6070     		strb	r0, [r4, #1]
 959:Drivers/STM32F4xx_HAL_Driver/Src/stm32f4xx_hal_pcd.c ****   ep->type = ep_type;
 1749              		.loc 1 959 0
 1750 0036 A260     		str	r2, [r4, #8]
 960:Drivers/STM32F4xx_HAL_Driver/Src/stm32f4xx_hal_pcd.c ****   if (ep->is_in)
 1751              		.loc 1 960 0
 1752 0038 E370     		strb	r3, [r4, #3]
 961:Drivers/STM32F4xx_HAL_Driver/Src/stm32f4xx_hal_pcd.c ****   {
 1753              		.loc 1 961 0
 1754 003a 00B1     		cbz	r0, .L116
 964:Drivers/STM32F4xx_HAL_Driver/Src/stm32f4xx_hal_pcd.c ****   }
 1755              		.loc 1 964 0
 1756 003c E180     		strh	r1, [r4, #6]	@ movhi
 1757              	.L116:
 967:Drivers/STM32F4xx_HAL_Driver/Src/stm32f4xx_hal_pcd.c ****   {
 1758              		.loc 1 967 0
 1759 003e 022B     		cmp	r3, #2
 1760 0040 01D1     		bne	.L117
 969:Drivers/STM32F4xx_HAL_Driver/Src/stm32f4xx_hal_pcd.c ****   }
 1761              		.loc 1 969 0
 1762 0042 0023     		movs	r3, #0
 1763              	.LVL160:
 1764 0044 2371     		strb	r3, [r4, #4]
 1765              	.L117:
 972:Drivers/STM32F4xx_HAL_Driver/Src/stm32f4xx_hal_pcd.c ****   USB_ActivateEndpoint(hpcd->Instance , ep);
 1766              		.loc 1 972 0
 1767 0046 95F8B833 		ldrb	r3, [r5, #952]	@ zero_extendqisi2
 1768 004a 012B     		cmp	r3, #1
 1769 004c 0AD0     		beq	.L119
 972:Drivers/STM32F4xx_HAL_Driver/Src/stm32f4xx_hal_pcd.c ****   USB_ActivateEndpoint(hpcd->Instance , ep);
 1770              		.loc 1 972 0 is_stmt 0 discriminator 2
 1771 004e 0123     		movs	r3, #1
 1772 0050 85F8B833 		strb	r3, [r5, #952]
 1773              	.LVL161:
 973:Drivers/STM32F4xx_HAL_Driver/Src/stm32f4xx_hal_pcd.c ****   __HAL_UNLOCK(hpcd);   
 1774              		.loc 1 973 0 is_stmt 1 discriminator 2
 1775 0054 2868     		ldr	r0, [r5]
 1776 0056 2146     		mov	r1, r4
 1777 0058 FFF7FEFF 		bl	USB_ActivateEndpoint
 1778              	.LVL162:
ARM GAS  /tmp/ccUYINNg.s 			page 59


 974:Drivers/STM32F4xx_HAL_Driver/Src/stm32f4xx_hal_pcd.c ****   return ret;
 1779              		.loc 1 974 0 discriminator 2
 1780 005c 0020     		movs	r0, #0
 1781 005e 85F8B803 		strb	r0, [r5, #952]
 975:Drivers/STM32F4xx_HAL_Driver/Src/stm32f4xx_hal_pcd.c **** }
 1782              		.loc 1 975 0 discriminator 2
 1783 0062 38BD     		pop	{r3, r4, r5, pc}
 1784              	.LVL163:
 1785              	.L119:
 972:Drivers/STM32F4xx_HAL_Driver/Src/stm32f4xx_hal_pcd.c ****   USB_ActivateEndpoint(hpcd->Instance , ep);
 1786              		.loc 1 972 0
 1787 0064 0220     		movs	r0, #2
 976:Drivers/STM32F4xx_HAL_Driver/Src/stm32f4xx_hal_pcd.c **** 
 1788              		.loc 1 976 0
 1789 0066 38BD     		pop	{r3, r4, r5, pc}
 1790              		.cfi_endproc
 1791              	.LFE144:
 1793              		.section	.text.HAL_PCD_EP_Close,"ax",%progbits
 1794              		.align	2
 1795              		.global	HAL_PCD_EP_Close
 1796              		.thumb
 1797              		.thumb_func
 1799              	HAL_PCD_EP_Close:
 1800              	.LFB145:
 986:Drivers/STM32F4xx_HAL_Driver/Src/stm32f4xx_hal_pcd.c ****   USB_OTG_EPTypeDef *ep;
 1801              		.loc 1 986 0
 1802              		.cfi_startproc
 1803              		@ args = 0, pretend = 0, frame = 0
 1804              		@ frame_needed = 0, uses_anonymous_args = 0
 1805              	.LVL164:
 1806 0000 10B5     		push	{r4, lr}
 1807              	.LCFI22:
 1808              		.cfi_def_cfa_offset 8
 1809              		.cfi_offset 4, -8
 1810              		.cfi_offset 14, -4
 1811 0002 0446     		mov	r4, r0
 989:Drivers/STM32F4xx_HAL_Driver/Src/stm32f4xx_hal_pcd.c ****   {
 1812              		.loc 1 989 0
 1813 0004 CAB2     		uxtb	r2, r1
 1814 0006 12F0800F 		tst	r2, #128
 1815 000a 07D0     		beq	.L122
 991:Drivers/STM32F4xx_HAL_Driver/Src/stm32f4xx_hal_pcd.c ****   }
 1816              		.loc 1 991 0
 1817 000c 01F07F03 		and	r3, r1, #127
 1818 0010 C3EBC303 		rsb	r3, r3, r3, lsl #3
 1819 0014 9B00     		lsls	r3, r3, #2
 1820 0016 3833     		adds	r3, r3, #56
 1821 0018 0344     		add	r3, r3, r0
 1822              	.LVL165:
 1823 001a 07E0     		b	.L123
 1824              	.LVL166:
 1825              	.L122:
 995:Drivers/STM32F4xx_HAL_Driver/Src/stm32f4xx_hal_pcd.c ****   }
 1826              		.loc 1 995 0
 1827 001c 01F07F03 		and	r3, r1, #127
 1828 0020 C3EBC303 		rsb	r3, r3, r3, lsl #3
 1829 0024 9B00     		lsls	r3, r3, #2
ARM GAS  /tmp/ccUYINNg.s 			page 60


 1830 0026 03F5FC73 		add	r3, r3, #504
 1831 002a 0344     		add	r3, r3, r0
 1832              	.LVL167:
 1833              	.L123:
 997:Drivers/STM32F4xx_HAL_Driver/Src/stm32f4xx_hal_pcd.c ****   
 1834              		.loc 1 997 0
 1835 002c 01F07F01 		and	r1, r1, #127
 1836              	.LVL168:
 1837 0030 1970     		strb	r1, [r3]
 999:Drivers/STM32F4xx_HAL_Driver/Src/stm32f4xx_hal_pcd.c ****   
 1838              		.loc 1 999 0
 1839 0032 D209     		lsrs	r2, r2, #7
 1840              	.LVL169:
 1841 0034 5A70     		strb	r2, [r3, #1]
1001:Drivers/STM32F4xx_HAL_Driver/Src/stm32f4xx_hal_pcd.c ****   USB_DeactivateEndpoint(hpcd->Instance , ep);
 1842              		.loc 1 1001 0
 1843 0036 94F8B823 		ldrb	r2, [r4, #952]	@ zero_extendqisi2
 1844 003a 012A     		cmp	r2, #1
 1845 003c 0AD0     		beq	.L125
1001:Drivers/STM32F4xx_HAL_Driver/Src/stm32f4xx_hal_pcd.c ****   USB_DeactivateEndpoint(hpcd->Instance , ep);
 1846              		.loc 1 1001 0 is_stmt 0 discriminator 2
 1847 003e 0122     		movs	r2, #1
 1848 0040 84F8B823 		strb	r2, [r4, #952]
1002:Drivers/STM32F4xx_HAL_Driver/Src/stm32f4xx_hal_pcd.c ****   __HAL_UNLOCK(hpcd);   
 1849              		.loc 1 1002 0 is_stmt 1 discriminator 2
 1850 0044 2068     		ldr	r0, [r4]
 1851              	.LVL170:
 1852 0046 1946     		mov	r1, r3
 1853 0048 FFF7FEFF 		bl	USB_DeactivateEndpoint
 1854              	.LVL171:
1003:Drivers/STM32F4xx_HAL_Driver/Src/stm32f4xx_hal_pcd.c ****   return HAL_OK;
 1855              		.loc 1 1003 0 discriminator 2
 1856 004c 0020     		movs	r0, #0
 1857 004e 84F8B803 		strb	r0, [r4, #952]
1004:Drivers/STM32F4xx_HAL_Driver/Src/stm32f4xx_hal_pcd.c **** }
 1858              		.loc 1 1004 0 discriminator 2
 1859 0052 10BD     		pop	{r4, pc}
 1860              	.LVL172:
 1861              	.L125:
1001:Drivers/STM32F4xx_HAL_Driver/Src/stm32f4xx_hal_pcd.c ****   USB_DeactivateEndpoint(hpcd->Instance , ep);
 1862              		.loc 1 1001 0
 1863 0054 0220     		movs	r0, #2
 1864              	.LVL173:
1005:Drivers/STM32F4xx_HAL_Driver/Src/stm32f4xx_hal_pcd.c **** 
 1865              		.loc 1 1005 0
 1866 0056 10BD     		pop	{r4, pc}
 1867              		.cfi_endproc
 1868              	.LFE145:
 1870              		.section	.text.HAL_PCD_EP_Receive,"ax",%progbits
 1871              		.align	2
 1872              		.global	HAL_PCD_EP_Receive
 1873              		.thumb
 1874              		.thumb_func
 1876              	HAL_PCD_EP_Receive:
 1877              	.LFB146:
1017:Drivers/STM32F4xx_HAL_Driver/Src/stm32f4xx_hal_pcd.c ****   USB_OTG_EPTypeDef *ep;
 1878              		.loc 1 1017 0
ARM GAS  /tmp/ccUYINNg.s 			page 61


 1879              		.cfi_startproc
 1880              		@ args = 0, pretend = 0, frame = 0
 1881              		@ frame_needed = 0, uses_anonymous_args = 0
 1882              	.LVL174:
 1883 0000 70B5     		push	{r4, r5, r6, lr}
 1884              	.LCFI23:
 1885              		.cfi_def_cfa_offset 16
 1886              		.cfi_offset 4, -16
 1887              		.cfi_offset 5, -12
 1888              		.cfi_offset 6, -8
 1889              		.cfi_offset 14, -4
1020:Drivers/STM32F4xx_HAL_Driver/Src/stm32f4xx_hal_pcd.c ****   
 1890              		.loc 1 1020 0
 1891 0002 01F07F06 		and	r6, r1, #127
 1892 0006 F400     		lsls	r4, r6, #3
 1893 0008 A51B     		subs	r5, r4, r6
 1894 000a AD00     		lsls	r5, r5, #2
 1895 000c 05F5FC75 		add	r5, r5, #504
 1896 0010 4119     		adds	r1, r0, r5
 1897              	.LVL175:
1023:Drivers/STM32F4xx_HAL_Driver/Src/stm32f4xx_hal_pcd.c ****   ep->xfer_len = len;
 1898              		.loc 1 1023 0
 1899 0012 A41B     		subs	r4, r4, r6
 1900 0014 A400     		lsls	r4, r4, #2
 1901 0016 0444     		add	r4, r4, r0
 1902 0018 C4F80422 		str	r2, [r4, #516]
1024:Drivers/STM32F4xx_HAL_Driver/Src/stm32f4xx_hal_pcd.c ****   ep->xfer_count = 0U;
 1903              		.loc 1 1024 0
 1904 001c C4F80C32 		str	r3, [r4, #524]
1025:Drivers/STM32F4xx_HAL_Driver/Src/stm32f4xx_hal_pcd.c ****   ep->is_in = 0U;
 1905              		.loc 1 1025 0
 1906 0020 0023     		movs	r3, #0
 1907              	.LVL176:
 1908 0022 C4F81032 		str	r3, [r4, #528]
1026:Drivers/STM32F4xx_HAL_Driver/Src/stm32f4xx_hal_pcd.c ****   ep->num = ep_addr & 0x7F;
 1909              		.loc 1 1026 0
 1910 0026 84F8F931 		strb	r3, [r4, #505]
1027:Drivers/STM32F4xx_HAL_Driver/Src/stm32f4xx_hal_pcd.c ****   
 1911              		.loc 1 1027 0
 1912 002a 84F8F861 		strb	r6, [r4, #504]
1029:Drivers/STM32F4xx_HAL_Driver/Src/stm32f4xx_hal_pcd.c ****   {
 1913              		.loc 1 1029 0
 1914 002e 0369     		ldr	r3, [r0, #16]
 1915 0030 012B     		cmp	r3, #1
 1916 0032 05D1     		bne	.L128
1031:Drivers/STM32F4xx_HAL_Driver/Src/stm32f4xx_hal_pcd.c ****   }
 1917              		.loc 1 1031 0
 1918 0034 C6EBC604 		rsb	r4, r6, r6, lsl #3
 1919              	.LVL177:
 1920 0038 A400     		lsls	r4, r4, #2
 1921 003a 0444     		add	r4, r4, r0
 1922 003c C4F80822 		str	r2, [r4, #520]
 1923              	.LVL178:
 1924              	.L128:
1034:Drivers/STM32F4xx_HAL_Driver/Src/stm32f4xx_hal_pcd.c ****   {
 1925              		.loc 1 1034 0
 1926 0040 26B9     		cbnz	r6, .L129
ARM GAS  /tmp/ccUYINNg.s 			page 62


1036:Drivers/STM32F4xx_HAL_Driver/Src/stm32f4xx_hal_pcd.c ****   }
 1927              		.loc 1 1036 0
 1928 0042 0068     		ldr	r0, [r0]
 1929              	.LVL179:
 1930 0044 DAB2     		uxtb	r2, r3
 1931              	.LVL180:
 1932 0046 FFF7FEFF 		bl	USB_EP0StartXfer
 1933              	.LVL181:
 1934 004a 03E0     		b	.L130
 1935              	.LVL182:
 1936              	.L129:
1040:Drivers/STM32F4xx_HAL_Driver/Src/stm32f4xx_hal_pcd.c ****   }
 1937              		.loc 1 1040 0
 1938 004c 0068     		ldr	r0, [r0]
 1939              	.LVL183:
 1940 004e DAB2     		uxtb	r2, r3
 1941              	.LVL184:
 1942 0050 FFF7FEFF 		bl	USB_EPStartXfer
 1943              	.LVL185:
 1944              	.L130:
1044:Drivers/STM32F4xx_HAL_Driver/Src/stm32f4xx_hal_pcd.c **** 
 1945              		.loc 1 1044 0
 1946 0054 0020     		movs	r0, #0
 1947 0056 70BD     		pop	{r4, r5, r6, pc}
 1948              		.cfi_endproc
 1949              	.LFE146:
 1951              		.section	.text.HAL_PCD_EP_GetRxCount,"ax",%progbits
 1952              		.align	2
 1953              		.global	HAL_PCD_EP_GetRxCount
 1954              		.thumb
 1955              		.thumb_func
 1957              	HAL_PCD_EP_GetRxCount:
 1958              	.LFB147:
1053:Drivers/STM32F4xx_HAL_Driver/Src/stm32f4xx_hal_pcd.c ****   return hpcd->OUT_ep[ep_addr & 0xF].xfer_count;
 1959              		.loc 1 1053 0
 1960              		.cfi_startproc
 1961              		@ args = 0, pretend = 0, frame = 0
 1962              		@ frame_needed = 0, uses_anonymous_args = 0
 1963              		@ link register save eliminated.
 1964              	.LVL186:
1054:Drivers/STM32F4xx_HAL_Driver/Src/stm32f4xx_hal_pcd.c **** }
 1965              		.loc 1 1054 0
 1966 0000 01F00F01 		and	r1, r1, #15
 1967              	.LVL187:
 1968 0004 C1EBC101 		rsb	r1, r1, r1, lsl #3
 1969 0008 8900     		lsls	r1, r1, #2
 1970 000a 0844     		add	r0, r0, r1
 1971              	.LVL188:
1055:Drivers/STM32F4xx_HAL_Driver/Src/stm32f4xx_hal_pcd.c **** /**
 1972              		.loc 1 1055 0
 1973 000c B0F81002 		ldrh	r0, [r0, #528]
 1974 0010 7047     		bx	lr
 1975              		.cfi_endproc
 1976              	.LFE147:
 1978 0012 00BF     		.section	.text.HAL_PCD_EP_Transmit,"ax",%progbits
 1979              		.align	2
 1980              		.global	HAL_PCD_EP_Transmit
ARM GAS  /tmp/ccUYINNg.s 			page 63


 1981              		.thumb
 1982              		.thumb_func
 1984              	HAL_PCD_EP_Transmit:
 1985              	.LFB148:
1065:Drivers/STM32F4xx_HAL_Driver/Src/stm32f4xx_hal_pcd.c ****   USB_OTG_EPTypeDef *ep;
 1986              		.loc 1 1065 0
 1987              		.cfi_startproc
 1988              		@ args = 0, pretend = 0, frame = 0
 1989              		@ frame_needed = 0, uses_anonymous_args = 0
 1990              	.LVL189:
 1991 0000 70B5     		push	{r4, r5, r6, lr}
 1992              	.LCFI24:
 1993              		.cfi_def_cfa_offset 16
 1994              		.cfi_offset 4, -16
 1995              		.cfi_offset 5, -12
 1996              		.cfi_offset 6, -8
 1997              		.cfi_offset 14, -4
1068:Drivers/STM32F4xx_HAL_Driver/Src/stm32f4xx_hal_pcd.c ****   
 1998              		.loc 1 1068 0
 1999 0002 01F07F06 		and	r6, r1, #127
 2000 0006 F400     		lsls	r4, r6, #3
 2001 0008 A51B     		subs	r5, r4, r6
 2002 000a AD00     		lsls	r5, r5, #2
 2003 000c 3835     		adds	r5, r5, #56
 2004 000e 4119     		adds	r1, r0, r5
 2005              	.LVL190:
1071:Drivers/STM32F4xx_HAL_Driver/Src/stm32f4xx_hal_pcd.c ****   ep->xfer_len = len;
 2006              		.loc 1 1071 0
 2007 0010 A41B     		subs	r4, r4, r6
 2008 0012 A400     		lsls	r4, r4, #2
 2009 0014 0444     		add	r4, r4, r0
 2010 0016 6264     		str	r2, [r4, #68]
1072:Drivers/STM32F4xx_HAL_Driver/Src/stm32f4xx_hal_pcd.c ****   ep->xfer_count = 0U;
 2011              		.loc 1 1072 0
 2012 0018 E364     		str	r3, [r4, #76]
1073:Drivers/STM32F4xx_HAL_Driver/Src/stm32f4xx_hal_pcd.c ****   ep->is_in = 1U;
 2013              		.loc 1 1073 0
 2014 001a 0023     		movs	r3, #0
 2015              	.LVL191:
 2016 001c 2365     		str	r3, [r4, #80]
1074:Drivers/STM32F4xx_HAL_Driver/Src/stm32f4xx_hal_pcd.c ****   ep->num = ep_addr & 0x7F;
 2017              		.loc 1 1074 0
 2018 001e 0123     		movs	r3, #1
 2019 0020 84F83930 		strb	r3, [r4, #57]
1075:Drivers/STM32F4xx_HAL_Driver/Src/stm32f4xx_hal_pcd.c ****   
 2020              		.loc 1 1075 0
 2021 0024 84F83860 		strb	r6, [r4, #56]
1077:Drivers/STM32F4xx_HAL_Driver/Src/stm32f4xx_hal_pcd.c ****   {
 2022              		.loc 1 1077 0
 2023 0028 0369     		ldr	r3, [r0, #16]
 2024 002a 012B     		cmp	r3, #1
 2025 002c 04D1     		bne	.L134
1079:Drivers/STM32F4xx_HAL_Driver/Src/stm32f4xx_hal_pcd.c ****   }
 2026              		.loc 1 1079 0
 2027 002e C6EBC604 		rsb	r4, r6, r6, lsl #3
 2028              	.LVL192:
 2029 0032 A400     		lsls	r4, r4, #2
ARM GAS  /tmp/ccUYINNg.s 			page 64


 2030 0034 0444     		add	r4, r4, r0
 2031 0036 A264     		str	r2, [r4, #72]
 2032              	.LVL193:
 2033              	.L134:
1082:Drivers/STM32F4xx_HAL_Driver/Src/stm32f4xx_hal_pcd.c ****   {
 2034              		.loc 1 1082 0
 2035 0038 26B9     		cbnz	r6, .L135
1084:Drivers/STM32F4xx_HAL_Driver/Src/stm32f4xx_hal_pcd.c ****   }
 2036              		.loc 1 1084 0
 2037 003a 0068     		ldr	r0, [r0]
 2038              	.LVL194:
 2039 003c DAB2     		uxtb	r2, r3
 2040              	.LVL195:
 2041 003e FFF7FEFF 		bl	USB_EP0StartXfer
 2042              	.LVL196:
 2043 0042 03E0     		b	.L136
 2044              	.LVL197:
 2045              	.L135:
1088:Drivers/STM32F4xx_HAL_Driver/Src/stm32f4xx_hal_pcd.c ****   }
 2046              		.loc 1 1088 0
 2047 0044 0068     		ldr	r0, [r0]
 2048              	.LVL198:
 2049 0046 DAB2     		uxtb	r2, r3
 2050              	.LVL199:
 2051 0048 FFF7FEFF 		bl	USB_EPStartXfer
 2052              	.LVL200:
 2053              	.L136:
1092:Drivers/STM32F4xx_HAL_Driver/Src/stm32f4xx_hal_pcd.c **** 
 2054              		.loc 1 1092 0
 2055 004c 0020     		movs	r0, #0
 2056 004e 70BD     		pop	{r4, r5, r6, pc}
 2057              		.cfi_endproc
 2058              	.LFE148:
 2060              		.section	.text.HAL_PCD_EP_SetStall,"ax",%progbits
 2061              		.align	2
 2062              		.global	HAL_PCD_EP_SetStall
 2063              		.thumb
 2064              		.thumb_func
 2066              	HAL_PCD_EP_SetStall:
 2067              	.LFB149:
1101:Drivers/STM32F4xx_HAL_Driver/Src/stm32f4xx_hal_pcd.c ****   USB_OTG_EPTypeDef *ep;
 2068              		.loc 1 1101 0
 2069              		.cfi_startproc
 2070              		@ args = 0, pretend = 0, frame = 0
 2071              		@ frame_needed = 0, uses_anonymous_args = 0
 2072              	.LVL201:
 2073 0000 38B5     		push	{r3, r4, r5, lr}
 2074              	.LCFI25:
 2075              		.cfi_def_cfa_offset 16
 2076              		.cfi_offset 3, -16
 2077              		.cfi_offset 4, -12
 2078              		.cfi_offset 5, -8
 2079              		.cfi_offset 14, -4
 2080 0002 0446     		mov	r4, r0
1104:Drivers/STM32F4xx_HAL_Driver/Src/stm32f4xx_hal_pcd.c ****   {
 2081              		.loc 1 1104 0
 2082 0004 CAB2     		uxtb	r2, r1
ARM GAS  /tmp/ccUYINNg.s 			page 65


 2083 0006 12F0800F 		tst	r2, #128
 2084 000a 07D0     		beq	.L139
1106:Drivers/STM32F4xx_HAL_Driver/Src/stm32f4xx_hal_pcd.c ****   }
 2085              		.loc 1 1106 0
 2086 000c 01F07F03 		and	r3, r1, #127
 2087 0010 C3EBC303 		rsb	r3, r3, r3, lsl #3
 2088 0014 9B00     		lsls	r3, r3, #2
 2089 0016 3833     		adds	r3, r3, #56
 2090 0018 0344     		add	r3, r3, r0
 2091              	.LVL202:
 2092 001a 05E0     		b	.L140
 2093              	.LVL203:
 2094              	.L139:
1110:Drivers/STM32F4xx_HAL_Driver/Src/stm32f4xx_hal_pcd.c ****   }
 2095              		.loc 1 1110 0
 2096 001c C1EBC103 		rsb	r3, r1, r1, lsl #3
 2097 0020 9B00     		lsls	r3, r3, #2
 2098 0022 03F5FC73 		add	r3, r3, #504
 2099 0026 0344     		add	r3, r3, r0
 2100              	.LVL204:
 2101              	.L140:
1113:Drivers/STM32F4xx_HAL_Driver/Src/stm32f4xx_hal_pcd.c ****   ep->num   = ep_addr & 0x7F;
 2102              		.loc 1 1113 0
 2103 0028 0120     		movs	r0, #1
 2104              	.LVL205:
 2105 002a 9870     		strb	r0, [r3, #2]
1114:Drivers/STM32F4xx_HAL_Driver/Src/stm32f4xx_hal_pcd.c ****   ep->is_in = ((ep_addr & 0x80) == 0x80);
 2106              		.loc 1 1114 0
 2107 002c 01F07F05 		and	r5, r1, #127
 2108 0030 1D70     		strb	r5, [r3]
1115:Drivers/STM32F4xx_HAL_Driver/Src/stm32f4xx_hal_pcd.c ****   
 2109              		.loc 1 1115 0
 2110 0032 D209     		lsrs	r2, r2, #7
 2111 0034 5A70     		strb	r2, [r3, #1]
1118:Drivers/STM32F4xx_HAL_Driver/Src/stm32f4xx_hal_pcd.c ****   USB_EPSetStall(hpcd->Instance , ep);
 2112              		.loc 1 1118 0
 2113 0036 94F8B823 		ldrb	r2, [r4, #952]	@ zero_extendqisi2
 2114 003a 8242     		cmp	r2, r0
 2115 003c 10D0     		beq	.L143
1118:Drivers/STM32F4xx_HAL_Driver/Src/stm32f4xx_hal_pcd.c ****   USB_EPSetStall(hpcd->Instance , ep);
 2116              		.loc 1 1118 0 is_stmt 0 discriminator 2
 2117 003e 84F8B803 		strb	r0, [r4, #952]
1119:Drivers/STM32F4xx_HAL_Driver/Src/stm32f4xx_hal_pcd.c ****   if((ep_addr & 0x7F) == 0)
 2118              		.loc 1 1119 0 is_stmt 1 discriminator 2
 2119 0042 2068     		ldr	r0, [r4]
 2120 0044 1946     		mov	r1, r3
 2121              	.LVL206:
 2122 0046 FFF7FEFF 		bl	USB_EPSetStall
 2123              	.LVL207:
1120:Drivers/STM32F4xx_HAL_Driver/Src/stm32f4xx_hal_pcd.c ****   {
 2124              		.loc 1 1120 0 discriminator 2
 2125 004a 2DB9     		cbnz	r5, .L142
1122:Drivers/STM32F4xx_HAL_Driver/Src/stm32f4xx_hal_pcd.c ****   }
 2126              		.loc 1 1122 0
 2127 004c 2068     		ldr	r0, [r4]
 2128 004e 217C     		ldrb	r1, [r4, #16]	@ zero_extendqisi2
 2129 0050 04F56F72 		add	r2, r4, #956
ARM GAS  /tmp/ccUYINNg.s 			page 66


 2130 0054 FFF7FEFF 		bl	USB_EP0_OutStart
 2131              	.LVL208:
 2132              	.L142:
1124:Drivers/STM32F4xx_HAL_Driver/Src/stm32f4xx_hal_pcd.c ****   
 2133              		.loc 1 1124 0
 2134 0058 0020     		movs	r0, #0
 2135 005a 84F8B803 		strb	r0, [r4, #952]
1126:Drivers/STM32F4xx_HAL_Driver/Src/stm32f4xx_hal_pcd.c **** }
 2136              		.loc 1 1126 0
 2137 005e 38BD     		pop	{r3, r4, r5, pc}
 2138              	.LVL209:
 2139              	.L143:
1118:Drivers/STM32F4xx_HAL_Driver/Src/stm32f4xx_hal_pcd.c ****   USB_EPSetStall(hpcd->Instance , ep);
 2140              		.loc 1 1118 0
 2141 0060 0220     		movs	r0, #2
1127:Drivers/STM32F4xx_HAL_Driver/Src/stm32f4xx_hal_pcd.c **** 
 2142              		.loc 1 1127 0
 2143 0062 38BD     		pop	{r3, r4, r5, pc}
 2144              		.cfi_endproc
 2145              	.LFE149:
 2147              		.section	.text.HAL_PCD_EP_ClrStall,"ax",%progbits
 2148              		.align	2
 2149              		.global	HAL_PCD_EP_ClrStall
 2150              		.thumb
 2151              		.thumb_func
 2153              	HAL_PCD_EP_ClrStall:
 2154              	.LFB150:
1136:Drivers/STM32F4xx_HAL_Driver/Src/stm32f4xx_hal_pcd.c ****   USB_OTG_EPTypeDef *ep;
 2155              		.loc 1 1136 0
 2156              		.cfi_startproc
 2157              		@ args = 0, pretend = 0, frame = 0
 2158              		@ frame_needed = 0, uses_anonymous_args = 0
 2159              	.LVL210:
 2160 0000 10B5     		push	{r4, lr}
 2161              	.LCFI26:
 2162              		.cfi_def_cfa_offset 8
 2163              		.cfi_offset 4, -8
 2164              		.cfi_offset 14, -4
 2165 0002 0446     		mov	r4, r0
1139:Drivers/STM32F4xx_HAL_Driver/Src/stm32f4xx_hal_pcd.c ****   {
 2166              		.loc 1 1139 0
 2167 0004 CAB2     		uxtb	r2, r1
 2168 0006 12F0800F 		tst	r2, #128
 2169 000a 07D0     		beq	.L146
1141:Drivers/STM32F4xx_HAL_Driver/Src/stm32f4xx_hal_pcd.c ****   }
 2170              		.loc 1 1141 0
 2171 000c 01F07F03 		and	r3, r1, #127
 2172 0010 C3EBC303 		rsb	r3, r3, r3, lsl #3
 2173 0014 9B00     		lsls	r3, r3, #2
 2174 0016 3833     		adds	r3, r3, #56
 2175 0018 0344     		add	r3, r3, r0
 2176              	.LVL211:
 2177 001a 05E0     		b	.L147
 2178              	.LVL212:
 2179              	.L146:
1145:Drivers/STM32F4xx_HAL_Driver/Src/stm32f4xx_hal_pcd.c ****   }
 2180              		.loc 1 1145 0
ARM GAS  /tmp/ccUYINNg.s 			page 67


 2181 001c C1EBC103 		rsb	r3, r1, r1, lsl #3
 2182 0020 9B00     		lsls	r3, r3, #2
 2183 0022 03F5FC73 		add	r3, r3, #504
 2184 0026 0344     		add	r3, r3, r0
 2185              	.LVL213:
 2186              	.L147:
1148:Drivers/STM32F4xx_HAL_Driver/Src/stm32f4xx_hal_pcd.c ****   ep->num   = ep_addr & 0x7F;
 2187              		.loc 1 1148 0
 2188 0028 0020     		movs	r0, #0
 2189              	.LVL214:
 2190 002a 9870     		strb	r0, [r3, #2]
1149:Drivers/STM32F4xx_HAL_Driver/Src/stm32f4xx_hal_pcd.c ****   ep->is_in = ((ep_addr & 0x80) == 0x80);
 2191              		.loc 1 1149 0
 2192 002c 01F07F01 		and	r1, r1, #127
 2193              	.LVL215:
 2194 0030 1970     		strb	r1, [r3]
1150:Drivers/STM32F4xx_HAL_Driver/Src/stm32f4xx_hal_pcd.c ****   
 2195              		.loc 1 1150 0
 2196 0032 D209     		lsrs	r2, r2, #7
 2197              	.LVL216:
 2198 0034 5A70     		strb	r2, [r3, #1]
1152:Drivers/STM32F4xx_HAL_Driver/Src/stm32f4xx_hal_pcd.c ****   USB_EPClearStall(hpcd->Instance , ep);
 2199              		.loc 1 1152 0
 2200 0036 94F8B823 		ldrb	r2, [r4, #952]	@ zero_extendqisi2
 2201 003a 012A     		cmp	r2, #1
 2202 003c 0AD0     		beq	.L149
1152:Drivers/STM32F4xx_HAL_Driver/Src/stm32f4xx_hal_pcd.c ****   USB_EPClearStall(hpcd->Instance , ep);
 2203              		.loc 1 1152 0 is_stmt 0 discriminator 2
 2204 003e 0122     		movs	r2, #1
 2205 0040 84F8B823 		strb	r2, [r4, #952]
1153:Drivers/STM32F4xx_HAL_Driver/Src/stm32f4xx_hal_pcd.c ****   __HAL_UNLOCK(hpcd); 
 2206              		.loc 1 1153 0 is_stmt 1 discriminator 2
 2207 0044 2068     		ldr	r0, [r4]
 2208 0046 1946     		mov	r1, r3
 2209 0048 FFF7FEFF 		bl	USB_EPClearStall
 2210              	.LVL217:
1154:Drivers/STM32F4xx_HAL_Driver/Src/stm32f4xx_hal_pcd.c ****     
 2211              		.loc 1 1154 0 discriminator 2
 2212 004c 0020     		movs	r0, #0
 2213 004e 84F8B803 		strb	r0, [r4, #952]
1156:Drivers/STM32F4xx_HAL_Driver/Src/stm32f4xx_hal_pcd.c **** }
 2214              		.loc 1 1156 0 discriminator 2
 2215 0052 10BD     		pop	{r4, pc}
 2216              	.LVL218:
 2217              	.L149:
1152:Drivers/STM32F4xx_HAL_Driver/Src/stm32f4xx_hal_pcd.c ****   USB_EPClearStall(hpcd->Instance , ep);
 2218              		.loc 1 1152 0
 2219 0054 0220     		movs	r0, #2
1157:Drivers/STM32F4xx_HAL_Driver/Src/stm32f4xx_hal_pcd.c **** 
 2220              		.loc 1 1157 0
 2221 0056 10BD     		pop	{r4, pc}
 2222              		.cfi_endproc
 2223              	.LFE150:
 2225              		.section	.text.HAL_PCD_EP_Flush,"ax",%progbits
 2226              		.align	2
 2227              		.global	HAL_PCD_EP_Flush
 2228              		.thumb
ARM GAS  /tmp/ccUYINNg.s 			page 68


 2229              		.thumb_func
 2231              	HAL_PCD_EP_Flush:
 2232              	.LFB151:
1166:Drivers/STM32F4xx_HAL_Driver/Src/stm32f4xx_hal_pcd.c ****   __HAL_LOCK(hpcd); 
 2233              		.loc 1 1166 0
 2234              		.cfi_startproc
 2235              		@ args = 0, pretend = 0, frame = 0
 2236              		@ frame_needed = 0, uses_anonymous_args = 0
 2237              	.LVL219:
1167:Drivers/STM32F4xx_HAL_Driver/Src/stm32f4xx_hal_pcd.c ****   
 2238              		.loc 1 1167 0
 2239 0000 90F8B833 		ldrb	r3, [r0, #952]	@ zero_extendqisi2
 2240 0004 012B     		cmp	r3, #1
 2241 0006 14D0     		beq	.L155
1166:Drivers/STM32F4xx_HAL_Driver/Src/stm32f4xx_hal_pcd.c ****   __HAL_LOCK(hpcd); 
 2242              		.loc 1 1166 0 discriminator 2
 2243 0008 10B5     		push	{r4, lr}
 2244              	.LCFI27:
 2245              		.cfi_def_cfa_offset 8
 2246              		.cfi_offset 4, -8
 2247              		.cfi_offset 14, -4
 2248 000a 0446     		mov	r4, r0
1167:Drivers/STM32F4xx_HAL_Driver/Src/stm32f4xx_hal_pcd.c ****   
 2249              		.loc 1 1167 0 discriminator 2
 2250 000c 0123     		movs	r3, #1
 2251 000e 80F8B833 		strb	r3, [r0, #952]
1169:Drivers/STM32F4xx_HAL_Driver/Src/stm32f4xx_hal_pcd.c ****   {
 2252              		.loc 1 1169 0 discriminator 2
 2253 0012 11F0800F 		tst	r1, #128
 2254 0016 05D0     		beq	.L153
1171:Drivers/STM32F4xx_HAL_Driver/Src/stm32f4xx_hal_pcd.c ****   }
 2255              		.loc 1 1171 0
 2256 0018 0068     		ldr	r0, [r0]
 2257              	.LVL220:
 2258 001a 01F07F01 		and	r1, r1, #127
 2259              	.LVL221:
 2260 001e FFF7FEFF 		bl	USB_FlushTxFifo
 2261              	.LVL222:
 2262 0022 02E0     		b	.L154
 2263              	.LVL223:
 2264              	.L153:
1175:Drivers/STM32F4xx_HAL_Driver/Src/stm32f4xx_hal_pcd.c ****   }
 2265              		.loc 1 1175 0
 2266 0024 0068     		ldr	r0, [r0]
 2267              	.LVL224:
 2268 0026 FFF7FEFF 		bl	USB_FlushRxFifo
 2269              	.LVL225:
 2270              	.L154:
1178:Drivers/STM32F4xx_HAL_Driver/Src/stm32f4xx_hal_pcd.c ****     
 2271              		.loc 1 1178 0
 2272 002a 0020     		movs	r0, #0
 2273 002c 84F8B803 		strb	r0, [r4, #952]
1180:Drivers/STM32F4xx_HAL_Driver/Src/stm32f4xx_hal_pcd.c **** }
 2274              		.loc 1 1180 0
 2275 0030 10BD     		pop	{r4, pc}
 2276              	.LVL226:
 2277              	.L155:
ARM GAS  /tmp/ccUYINNg.s 			page 69


 2278              	.LCFI28:
 2279              		.cfi_def_cfa_offset 0
 2280              		.cfi_restore 4
 2281              		.cfi_restore 14
1167:Drivers/STM32F4xx_HAL_Driver/Src/stm32f4xx_hal_pcd.c ****   
 2282              		.loc 1 1167 0
 2283 0032 0220     		movs	r0, #2
 2284              	.LVL227:
 2285 0034 7047     		bx	lr
 2286              		.cfi_endproc
 2287              	.LFE151:
 2289 0036 00BF     		.section	.text.HAL_PCD_ActivateRemoteWakeup,"ax",%progbits
 2290              		.align	2
 2291              		.global	HAL_PCD_ActivateRemoteWakeup
 2292              		.thumb
 2293              		.thumb_func
 2295              	HAL_PCD_ActivateRemoteWakeup:
 2296              	.LFB152:
1189:Drivers/STM32F4xx_HAL_Driver/Src/stm32f4xx_hal_pcd.c ****   USB_OTG_GlobalTypeDef *USBx = hpcd->Instance;  
 2297              		.loc 1 1189 0
 2298              		.cfi_startproc
 2299              		@ args = 0, pretend = 0, frame = 0
 2300              		@ frame_needed = 0, uses_anonymous_args = 0
 2301              		@ link register save eliminated.
 2302              	.LVL228:
1190:Drivers/STM32F4xx_HAL_Driver/Src/stm32f4xx_hal_pcd.c ****     
 2303              		.loc 1 1190 0
 2304 0000 0368     		ldr	r3, [r0]
 2305              	.LVL229:
1192:Drivers/STM32F4xx_HAL_Driver/Src/stm32f4xx_hal_pcd.c ****   {
 2306              		.loc 1 1192 0
 2307 0002 D3F80828 		ldr	r2, [r3, #2056]
 2308 0006 03F50063 		add	r3, r3, #2048
 2309              	.LVL230:
 2310 000a 12F0010F 		tst	r2, #1
 2311 000e 03D0     		beq	.L159
1195:Drivers/STM32F4xx_HAL_Driver/Src/stm32f4xx_hal_pcd.c ****   }
 2312              		.loc 1 1195 0
 2313 0010 5A68     		ldr	r2, [r3, #4]
 2314 0012 42F00102 		orr	r2, r2, #1
 2315 0016 5A60     		str	r2, [r3, #4]
 2316              	.LVL231:
 2317              	.L159:
1198:Drivers/STM32F4xx_HAL_Driver/Src/stm32f4xx_hal_pcd.c **** 
 2318              		.loc 1 1198 0
 2319 0018 0020     		movs	r0, #0
 2320              	.LVL232:
 2321 001a 7047     		bx	lr
 2322              		.cfi_endproc
 2323              	.LFE152:
 2325              		.section	.text.HAL_PCD_DeActivateRemoteWakeup,"ax",%progbits
 2326              		.align	2
 2327              		.global	HAL_PCD_DeActivateRemoteWakeup
 2328              		.thumb
 2329              		.thumb_func
 2331              	HAL_PCD_DeActivateRemoteWakeup:
 2332              	.LFB153:
ARM GAS  /tmp/ccUYINNg.s 			page 70


1206:Drivers/STM32F4xx_HAL_Driver/Src/stm32f4xx_hal_pcd.c ****   USB_OTG_GlobalTypeDef *USBx = hpcd->Instance;  
 2333              		.loc 1 1206 0
 2334              		.cfi_startproc
 2335              		@ args = 0, pretend = 0, frame = 0
 2336              		@ frame_needed = 0, uses_anonymous_args = 0
 2337              		@ link register save eliminated.
 2338              	.LVL233:
1207:Drivers/STM32F4xx_HAL_Driver/Src/stm32f4xx_hal_pcd.c ****   
 2339              		.loc 1 1207 0
 2340 0000 0368     		ldr	r3, [r0]
 2341              	.LVL234:
1210:Drivers/STM32F4xx_HAL_Driver/Src/stm32f4xx_hal_pcd.c ****   return HAL_OK;  
 2342              		.loc 1 1210 0
 2343 0002 D3F80428 		ldr	r2, [r3, #2052]
 2344 0006 22F00102 		bic	r2, r2, #1
 2345 000a C3F80428 		str	r2, [r3, #2052]
1212:Drivers/STM32F4xx_HAL_Driver/Src/stm32f4xx_hal_pcd.c **** /**
 2346              		.loc 1 1212 0
 2347 000e 0020     		movs	r0, #0
 2348              	.LVL235:
 2349 0010 7047     		bx	lr
 2350              		.cfi_endproc
 2351              	.LFE153:
 2353 0012 00BF     		.section	.text.HAL_PCD_GetState,"ax",%progbits
 2354              		.align	2
 2355              		.global	HAL_PCD_GetState
 2356              		.thumb
 2357              		.thumb_func
 2359              	HAL_PCD_GetState:
 2360              	.LFB154:
1238:Drivers/STM32F4xx_HAL_Driver/Src/stm32f4xx_hal_pcd.c ****   return hpcd->State;
 2361              		.loc 1 1238 0
 2362              		.cfi_startproc
 2363              		@ args = 0, pretend = 0, frame = 0
 2364              		@ frame_needed = 0, uses_anonymous_args = 0
 2365              		@ link register save eliminated.
 2366              	.LVL236:
1239:Drivers/STM32F4xx_HAL_Driver/Src/stm32f4xx_hal_pcd.c **** }
 2367              		.loc 1 1239 0
 2368 0000 90F8B903 		ldrb	r0, [r0, #953]	@ zero_extendqisi2
 2369              	.LVL237:
1240:Drivers/STM32F4xx_HAL_Driver/Src/stm32f4xx_hal_pcd.c **** /**
 2370              		.loc 1 1240 0
 2371 0004 7047     		bx	lr
 2372              		.cfi_endproc
 2373              	.LFE154:
 2375 0006 00BF     		.text
 2376              	.Letext0:
 2377              		.file 2 "/usr/include/newlib/machine/_default_types.h"
 2378              		.file 3 "/usr/include/newlib/sys/_stdint.h"
 2379              		.file 4 "Drivers/CMSIS/Device/ST/STM32F4xx/Include/stm32f407xx.h"
 2380              		.file 5 "Drivers/STM32F4xx_HAL_Driver/Inc/stm32f4xx_hal_def.h"
 2381              		.file 6 "Drivers/STM32F4xx_HAL_Driver/Inc/stm32f4xx_ll_usb.h"
 2382              		.file 7 "Drivers/STM32F4xx_HAL_Driver/Inc/stm32f4xx_hal_pcd.h"
 2383              		.file 8 "Drivers/CMSIS/Include/core_cm4.h"
 2384              		.file 9 "Drivers/STM32F4xx_HAL_Driver/Inc/stm32f4xx_hal_rcc.h"
ARM GAS  /tmp/ccUYINNg.s 			page 71


DEFINED SYMBOLS
                            *ABS*:00000000 stm32f4xx_hal_pcd.c
     /tmp/ccUYINNg.s:21     .text.PCD_WriteEmptyTxFifo:00000000 $t
     /tmp/ccUYINNg.s:25     .text.PCD_WriteEmptyTxFifo:00000000 PCD_WriteEmptyTxFifo
     /tmp/ccUYINNg.s:166    .text.HAL_PCD_MspInit:00000000 $t
     /tmp/ccUYINNg.s:171    .text.HAL_PCD_MspInit:00000000 HAL_PCD_MspInit
     /tmp/ccUYINNg.s:184    .text.HAL_PCD_Init:00000000 $t
     /tmp/ccUYINNg.s:189    .text.HAL_PCD_Init:00000000 HAL_PCD_Init
     /tmp/ccUYINNg.s:368    .text.HAL_PCD_MspDeInit:00000000 $t
     /tmp/ccUYINNg.s:373    .text.HAL_PCD_MspDeInit:00000000 HAL_PCD_MspDeInit
     /tmp/ccUYINNg.s:386    .text.HAL_PCD_Start:00000000 $t
     /tmp/ccUYINNg.s:391    .text.HAL_PCD_Start:00000000 HAL_PCD_Start
     /tmp/ccUYINNg.s:440    .text.HAL_PCD_Stop:00000000 $t
     /tmp/ccUYINNg.s:445    .text.HAL_PCD_Stop:00000000 HAL_PCD_Stop
     /tmp/ccUYINNg.s:498    .text.HAL_PCD_DeInit:00000000 $t
     /tmp/ccUYINNg.s:503    .text.HAL_PCD_DeInit:00000000 HAL_PCD_DeInit
     /tmp/ccUYINNg.s:548    .text.HAL_PCD_DataOutStageCallback:00000000 $t
     /tmp/ccUYINNg.s:553    .text.HAL_PCD_DataOutStageCallback:00000000 HAL_PCD_DataOutStageCallback
     /tmp/ccUYINNg.s:566    .text.HAL_PCD_DataInStageCallback:00000000 $t
     /tmp/ccUYINNg.s:571    .text.HAL_PCD_DataInStageCallback:00000000 HAL_PCD_DataInStageCallback
     /tmp/ccUYINNg.s:584    .text.HAL_PCD_SetupStageCallback:00000000 $t
     /tmp/ccUYINNg.s:589    .text.HAL_PCD_SetupStageCallback:00000000 HAL_PCD_SetupStageCallback
     /tmp/ccUYINNg.s:602    .text.HAL_PCD_SOFCallback:00000000 $t
     /tmp/ccUYINNg.s:607    .text.HAL_PCD_SOFCallback:00000000 HAL_PCD_SOFCallback
     /tmp/ccUYINNg.s:620    .text.HAL_PCD_ResetCallback:00000000 $t
     /tmp/ccUYINNg.s:625    .text.HAL_PCD_ResetCallback:00000000 HAL_PCD_ResetCallback
     /tmp/ccUYINNg.s:638    .text.HAL_PCD_SuspendCallback:00000000 $t
     /tmp/ccUYINNg.s:643    .text.HAL_PCD_SuspendCallback:00000000 HAL_PCD_SuspendCallback
     /tmp/ccUYINNg.s:656    .text.HAL_PCD_ResumeCallback:00000000 $t
     /tmp/ccUYINNg.s:661    .text.HAL_PCD_ResumeCallback:00000000 HAL_PCD_ResumeCallback
     /tmp/ccUYINNg.s:674    .text.HAL_PCD_ISOOUTIncompleteCallback:00000000 $t
     /tmp/ccUYINNg.s:679    .text.HAL_PCD_ISOOUTIncompleteCallback:00000000 HAL_PCD_ISOOUTIncompleteCallback
     /tmp/ccUYINNg.s:692    .text.HAL_PCD_ISOINIncompleteCallback:00000000 $t
     /tmp/ccUYINNg.s:697    .text.HAL_PCD_ISOINIncompleteCallback:00000000 HAL_PCD_ISOINIncompleteCallback
     /tmp/ccUYINNg.s:710    .text.HAL_PCD_ConnectCallback:00000000 $t
     /tmp/ccUYINNg.s:715    .text.HAL_PCD_ConnectCallback:00000000 HAL_PCD_ConnectCallback
     /tmp/ccUYINNg.s:728    .text.HAL_PCD_DisconnectCallback:00000000 $t
     /tmp/ccUYINNg.s:733    .text.HAL_PCD_DisconnectCallback:00000000 HAL_PCD_DisconnectCallback
     /tmp/ccUYINNg.s:746    .text.HAL_PCD_IRQHandler:00000000 $t
     /tmp/ccUYINNg.s:751    .text.HAL_PCD_IRQHandler:00000000 HAL_PCD_IRQHandler
     /tmp/ccUYINNg.s:1528   .text.HAL_PCD_IRQHandler:0000053c $d
     /tmp/ccUYINNg.s:1547   .text.HAL_PCD_DevConnect:00000000 $t
     /tmp/ccUYINNg.s:1552   .text.HAL_PCD_DevConnect:00000000 HAL_PCD_DevConnect
     /tmp/ccUYINNg.s:1597   .text.HAL_PCD_DevDisconnect:00000000 $t
     /tmp/ccUYINNg.s:1602   .text.HAL_PCD_DevDisconnect:00000000 HAL_PCD_DevDisconnect
     /tmp/ccUYINNg.s:1647   .text.HAL_PCD_SetAddress:00000000 $t
     /tmp/ccUYINNg.s:1652   .text.HAL_PCD_SetAddress:00000000 HAL_PCD_SetAddress
     /tmp/ccUYINNg.s:1697   .text.HAL_PCD_EP_Open:00000000 $t
     /tmp/ccUYINNg.s:1702   .text.HAL_PCD_EP_Open:00000000 HAL_PCD_EP_Open
     /tmp/ccUYINNg.s:1794   .text.HAL_PCD_EP_Close:00000000 $t
     /tmp/ccUYINNg.s:1799   .text.HAL_PCD_EP_Close:00000000 HAL_PCD_EP_Close
     /tmp/ccUYINNg.s:1871   .text.HAL_PCD_EP_Receive:00000000 $t
     /tmp/ccUYINNg.s:1876   .text.HAL_PCD_EP_Receive:00000000 HAL_PCD_EP_Receive
     /tmp/ccUYINNg.s:1952   .text.HAL_PCD_EP_GetRxCount:00000000 $t
     /tmp/ccUYINNg.s:1957   .text.HAL_PCD_EP_GetRxCount:00000000 HAL_PCD_EP_GetRxCount
     /tmp/ccUYINNg.s:1979   .text.HAL_PCD_EP_Transmit:00000000 $t
     /tmp/ccUYINNg.s:1984   .text.HAL_PCD_EP_Transmit:00000000 HAL_PCD_EP_Transmit
ARM GAS  /tmp/ccUYINNg.s 			page 72


     /tmp/ccUYINNg.s:2061   .text.HAL_PCD_EP_SetStall:00000000 $t
     /tmp/ccUYINNg.s:2066   .text.HAL_PCD_EP_SetStall:00000000 HAL_PCD_EP_SetStall
     /tmp/ccUYINNg.s:2148   .text.HAL_PCD_EP_ClrStall:00000000 $t
     /tmp/ccUYINNg.s:2153   .text.HAL_PCD_EP_ClrStall:00000000 HAL_PCD_EP_ClrStall
     /tmp/ccUYINNg.s:2226   .text.HAL_PCD_EP_Flush:00000000 $t
     /tmp/ccUYINNg.s:2231   .text.HAL_PCD_EP_Flush:00000000 HAL_PCD_EP_Flush
     /tmp/ccUYINNg.s:2290   .text.HAL_PCD_ActivateRemoteWakeup:00000000 $t
     /tmp/ccUYINNg.s:2295   .text.HAL_PCD_ActivateRemoteWakeup:00000000 HAL_PCD_ActivateRemoteWakeup
     /tmp/ccUYINNg.s:2326   .text.HAL_PCD_DeActivateRemoteWakeup:00000000 $t
     /tmp/ccUYINNg.s:2331   .text.HAL_PCD_DeActivateRemoteWakeup:00000000 HAL_PCD_DeActivateRemoteWakeup
     /tmp/ccUYINNg.s:2354   .text.HAL_PCD_GetState:00000000 $t
     /tmp/ccUYINNg.s:2359   .text.HAL_PCD_GetState:00000000 HAL_PCD_GetState
                     .debug_frame:00000010 $d

UNDEFINED SYMBOLS
USB_WritePacket
USB_DisableGlobalInt
USB_CoreInit
USB_SetCurrentMode
USB_DevInit
USB_DevDisconnect
USB_DevConnect
USB_EnableGlobalInt
USB_StopDevice
USB_GetMode
USB_ReadInterrupts
USB_ReadDevAllOutEpInterrupt
USB_ReadDevOutEPInterrupt
USB_EP0_OutStart
USB_ReadDevAllInEpInterrupt
USB_ReadDevInEPInterrupt
USB_FlushTxFifo
USB_ActivateSetup
USB_GetDevSpeed
HAL_RCC_GetHCLKFreq
USB_ReadPacket
USB_SetDevAddress
USB_ActivateEndpoint
USB_DeactivateEndpoint
USB_EP0StartXfer
USB_EPStartXfer
USB_EPSetStall
USB_EPClearStall
USB_FlushRxFifo
